(dp1
S'layout'
p2
(ilayout
Layout
p3
(dp4
S'capsules'
p5
(lp6
(I8
I8
tp7
a(I24
I8
tp8
a(I9
I9
tp9
a(I25
I9
tp10
asS'numGhosts'
p11
I4
sS'food'
p12
(igame
Grid
p13
(dp14
S'CELLS_PER_INT'
p15
I30
sS'width'
p16
I34
sS'data'
p17
(lp18
(lp19
I00
aI00
aI00
aI00
aI00
aI00
aI00
aI00
aI00
aI00
aI00
aI00
aI00
aI00
aI00
aI00
aI00
aI00
aa(lp20
I00
aI00
aI00
aI00
aI00
aI00
aI00
aI00
aI00
aI00
aI00
aI00
aI00
aI00
aI00
aI00
aI00
aI00
aa(lp21
I00
aI00
aI00
aI00
aI00
aI00
aI00
aI00
aI00
aI00
aI00
aI00
aI00
aI00
aI00
aI00
aI00
aI00
aa(lp22
I00
aI00
aI00
aI00
aI00
aI00
aI01
aI00
aI00
aI00
aI01
aI00
aI00
aI01
aI01
aI00
aI00
aI00
aa(lp23
I00
aI00
aI00
aI00
aI00
aI00
aI00
aI00
aI00
aI00
aI00
aI00
aI00
aI00
aI00
aI00
aI00
aI00
aa(lp24
I00
aI00
aI00
aI00
aI00
aI00
aI01
aI00
aI01
aI00
aI01
aI00
aI01
aI00
aI01
aI00
aI00
aI00
aa(lp25
I00
aI00
aI00
aI00
aI00
aI00
aI00
aI00
aI00
aI00
aI01
aI00
aI00
aI01
aI00
aI00
aI00
aI00
aa(lp26
I00
aI01
aI01
aI00
aI01
aI00
aI01
aI00
aI01
aI00
aI00
aI00
aI00
aI00
aI00
aI00
aI00
aI00
aa(lp27
I00
aI00
aI00
aI00
aI00
aI00
aI00
aI00
aI00
aI00
aI01
aI00
aI00
aI00
aI00
aI00
aI00
aI00
aa(lp28
I00
aI00
aI00
aI00
aI00
aI00
aI00
aI00
aI00
aI00
aI01
aI00
aI00
aI00
aI01
aI01
aI00
aI00
aa(lp29
I00
aI00
aI00
aI00
aI00
aI00
aI00
aI00
aI00
aI00
aI00
aI00
aI01
aI00
aI00
aI00
aI01
aI00
aa(lp30
I00
aI00
aI00
aI01
aI01
aI00
aI00
aI00
aI00
aI00
aI00
aI00
aI00
aI00
aI00
aI00
aI01
aI00
aa(lp31
I00
aI00
aI01
aI00
aI00
aI00
aI00
aI01
aI00
aI00
aI00
aI00
aI00
aI00
aI00
aI00
aI00
aI00
aa(lp32
I00
aI00
aI00
aI00
aI00
aI00
aI00
aI00
aI00
aI00
aI00
aI00
aI01
aI00
aI00
aI00
aI01
aI00
aa(lp33
I00
aI00
aI00
aI00
aI00
aI00
aI00
aI00
aI00
aI00
aI01
aI00
aI00
aI00
aI00
aI00
aI00
aI00
aa(lp34
I00
aI00
aI00
aI00
aI00
aI00
aI00
aI00
aI00
aI00
aI00
aI00
aI00
aI00
aI00
aI00
aI00
aI00
aa(lp35
I00
aI00
aI00
aI00
aI00
aI00
aI00
aI00
aI00
aI00
aI00
aI00
aI00
aI00
aI00
aI00
aI00
aI00
aa(lp36
I00
aI00
aI00
aI00
aI00
aI00
aI00
aI00
aI00
aI00
aI00
aI00
aI00
aI00
aI00
aI00
aI00
aI00
aa(lp37
I00
aI00
aI00
aI00
aI00
aI00
aI00
aI00
aI00
aI00
aI00
aI00
aI00
aI00
aI00
aI00
aI00
aI00
aa(lp38
I00
aI00
aI00
aI00
aI00
aI00
aI00
aI01
aI00
aI00
aI00
aI00
aI00
aI00
aI00
aI00
aI00
aI00
aa(lp39
I00
aI01
aI00
aI00
aI00
aI01
aI00
aI00
aI00
aI00
aI00
aI00
aI00
aI00
aI00
aI00
aI00
aI00
aa(lp40
I00
aI00
aI00
aI00
aI00
aI00
aI00
aI00
aI00
aI00
aI01
aI00
aI00
aI00
aI00
aI01
aI00
aI00
aa(lp41
I00
aI01
aI00
aI00
aI00
aI00
aI00
aI00
aI00
aI00
aI00
aI00
aI00
aI01
aI01
aI00
aI00
aI00
aa(lp42
I00
aI01
aI00
aI00
aI00
aI01
aI00
aI00
aI00
aI00
aI00
aI00
aI00
aI00
aI00
aI00
aI00
aI00
aa(lp43
I00
aI00
aI01
aI01
aI00
aI00
aI00
aI01
aI00
aI00
aI00
aI00
aI00
aI00
aI00
aI00
aI00
aI00
aa(lp44
I00
aI00
aI00
aI00
aI00
aI00
aI00
aI01
aI00
aI00
aI00
aI00
aI00
aI00
aI00
aI00
aI00
aI00
aa(lp45
I00
aI00
aI00
aI00
aI00
aI00
aI00
aI00
aI00
aI01
aI00
aI01
aI00
aI01
aI00
aI01
aI01
aI00
aa(lp46
I00
aI00
aI00
aI00
aI01
aI00
aI00
aI01
aI00
aI00
aI00
aI00
aI00
aI00
aI00
aI00
aI00
aI00
aa(lp47
I00
aI00
aI00
aI01
aI00
aI01
aI00
aI01
aI00
aI01
aI00
aI01
aI00
aI00
aI00
aI00
aI00
aI00
aa(lp48
I00
aI00
aI00
aI00
aI00
aI00
aI00
aI00
aI00
aI00
aI00
aI00
aI00
aI00
aI00
aI00
aI00
aI00
aa(lp49
I00
aI00
aI00
aI01
aI01
aI00
aI00
aI01
aI00
aI00
aI00
aI01
aI00
aI00
aI00
aI00
aI00
aI00
aa(lp50
I00
aI00
aI00
aI00
aI00
aI00
aI00
aI00
aI00
aI00
aI00
aI00
aI00
aI00
aI00
aI00
aI00
aI00
aa(lp51
I00
aI00
aI00
aI00
aI00
aI00
aI00
aI00
aI00
aI00
aI00
aI00
aI00
aI00
aI00
aI00
aI00
aI00
aa(lp52
I00
aI00
aI00
aI00
aI00
aI00
aI00
aI00
aI00
aI00
aI00
aI00
aI00
aI00
aI00
aI00
aI00
aI00
aasS'height'
p53
I18
sbsS'agentPositions'
p54
(lp55
(I00
(I1
I2
tp56
tp57
a(I00
(I32
I15
tp58
tp59
a(I00
(I1
I1
tp60
tp61
a(I00
(I32
I16
tp62
tp63
asg53
I18
sg16
I34
sS'walls'
p64
(igame
Grid
p65
(dp66
g15
I30
sg16
I34
sg17
(lp67
(lp68
I01
aI01
aI01
aI01
aI01
aI01
aI01
aI01
aI01
aI01
aI01
aI01
aI01
aI01
aI01
aI01
aI01
aI01
aa(lp69
I01
aI00
aI00
aI00
aI00
aI00
aI00
aI00
aI00
aI00
aI00
aI00
aI00
aI00
aI00
aI00
aI00
aI01
aa(lp70
I01
aI01
aI01
aI01
aI01
aI01
aI01
aI01
aI01
aI01
aI01
aI01
aI01
aI01
aI01
aI01
aI00
aI01
aa(lp71
I01
aI00
aI00
aI00
aI00
aI00
aI00
aI00
aI00
aI00
aI00
aI00
aI00
aI00
aI00
aI01
aI00
aI01
aa(lp72
I01
aI01
aI00
aI01
aI01
aI01
aI01
aI01
aI01
aI01
aI01
aI01
aI01
aI01
aI01
aI01
aI00
aI01
aa(lp73
I01
aI00
aI00
aI00
aI00
aI00
aI00
aI00
aI00
aI01
aI00
aI01
aI00
aI01
aI00
aI01
aI00
aI01
aa(lp74
I01
aI01
aI01
aI01
aI01
aI01
aI01
aI01
aI00
aI01
aI00
aI00
aI00
aI00
aI00
aI01
aI00
aI01
aa(lp75
I01
aI00
aI00
aI01
aI00
aI01
aI00
aI01
aI00
aI01
aI01
aI01
aI01
aI01
aI00
aI01
aI00
aI01
aa(lp76
I01
aI01
aI00
aI01
aI00
aI00
aI00
aI00
aI00
aI01
aI00
aI00
aI01
aI00
aI00
aI01
aI00
aI01
aa(lp77
I01
aI00
aI00
aI00
aI00
aI01
aI00
aI01
aI00
aI00
aI00
aI00
aI01
aI00
aI00
aI00
aI00
aI01
aa(lp78
I01
aI00
aI01
aI01
aI01
aI01
aI00
aI00
aI00
aI01
aI00
aI00
aI00
aI00
aI00
aI01
aI00
aI01
aa(lp79
I01
aI00
aI00
aI00
aI00
aI01
aI00
aI00
aI00
aI00
aI00
aI00
aI01
aI00
aI00
aI01
aI00
aI01
aa(lp80
I01
aI01
aI00
aI01
aI01
aI01
aI01
aI00
aI01
aI00
aI01
aI01
aI01
aI01
aI01
aI01
aI01
aI01
aa(lp81
I01
aI00
aI00
aI00
aI00
aI00
aI00
aI00
aI00
aI00
aI00
aI01
aI00
aI00
aI00
aI00
aI00
aI01
aa(lp82
I01
aI00
aI01
aI01
aI01
aI01
aI01
aI01
aI01
aI01
aI00
aI00
aI00
aI01
aI01
aI00
aI01
aI01
aa(lp83
I01
aI00
aI00
aI00
aI00
aI00
aI00
aI01
aI00
aI00
aI00
aI01
aI00
aI00
aI00
aI00
aI00
aI01
aa(lp84
I01
aI00
aI00
aI01
aI00
aI01
aI00
aI00
aI00
aI01
aI00
aI01
aI00
aI01
aI00
aI00
aI00
aI01
aa(lp85
I01
aI00
aI00
aI00
aI01
aI00
aI01
aI00
aI01
aI00
aI00
aI00
aI01
aI00
aI01
aI00
aI00
aI01
aa(lp86
I01
aI00
aI00
aI00
aI00
aI00
aI01
aI00
aI00
aI00
aI01
aI00
aI00
aI00
aI00
aI00
aI00
aI01
aa(lp87
I01
aI01
aI00
aI01
aI01
aI00
aI00
aI00
aI01
aI01
aI01
aI01
aI01
aI01
aI01
aI01
aI00
aI01
aa(lp88
I01
aI00
aI00
aI00
aI00
aI00
aI01
aI00
aI00
aI00
aI00
aI00
aI00
aI00
aI00
aI00
aI00
aI01
aa(lp89
I01
aI01
aI01
aI01
aI01
aI01
aI01
aI01
aI00
aI01
aI00
aI01
aI01
aI01
aI01
aI00
aI01
aI01
aa(lp90
I01
aI00
aI01
aI00
aI00
aI01
aI00
aI00
aI00
aI00
aI00
aI00
aI01
aI00
aI00
aI00
aI00
aI01
aa(lp91
I01
aI00
aI01
aI00
aI00
aI00
aI00
aI00
aI01
aI00
aI00
aI00
aI01
aI01
aI01
aI01
aI00
aI01
aa(lp92
I01
aI00
aI00
aI00
aI00
aI01
aI00
aI00
aI00
aI00
aI01
aI00
aI01
aI00
aI00
aI00
aI00
aI01
aa(lp93
I01
aI00
aI01
aI00
aI00
aI01
aI00
aI00
aI01
aI00
aI00
aI00
aI00
aI00
aI01
aI00
aI01
aI01
aa(lp94
I01
aI00
aI01
aI00
aI01
aI01
aI01
aI01
aI01
aI00
aI01
aI00
aI01
aI00
aI01
aI00
aI00
aI01
aa(lp95
I01
aI00
aI01
aI00
aI00
aI00
aI00
aI00
aI01
aI00
aI01
aI01
aI01
aI01
aI01
aI01
aI01
aI01
aa(lp96
I01
aI00
aI01
aI00
aI01
aI00
aI01
aI00
aI01
aI00
aI00
aI00
aI00
aI00
aI00
aI00
aI00
aI01
aa(lp97
I01
aI00
aI01
aI01
aI01
aI01
aI01
aI01
aI01
aI01
aI01
aI01
aI01
aI01
aI01
aI00
aI01
aI01
aa(lp98
I01
aI00
aI01
aI00
aI00
aI00
aI00
aI00
aI00
aI00
aI00
aI00
aI00
aI00
aI00
aI00
aI00
aI01
aa(lp99
I01
aI00
aI01
aI01
aI01
aI01
aI01
aI01
aI01
aI01
aI01
aI01
aI01
aI01
aI01
aI01
aI01
aI01
aa(lp100
I01
aI00
aI00
aI00
aI00
aI00
aI00
aI00
aI00
aI00
aI00
aI00
aI00
aI00
aI00
aI00
aI00
aI01
aa(lp101
I01
aI01
aI01
aI01
aI01
aI01
aI01
aI01
aI01
aI01
aI01
aI01
aI01
aI01
aI01
aI01
aI01
aI01
aasg53
I18
sbsS'totalFood'
p102
I60
sS'layoutText'
p103
(lp104
S'%%%%%%%%%%%%%%%%%%%%%%%%%%%%%%%%%%'
p105
aS'%         ..%.%      %   %.% % %4%'
p106
aS'% %%%%%%%.%%%      % . %  .%   %2%'
p107
aS'% %.%.   .  % %  % % %.% %%% % % %'
p108
aS'% %.%%.%    % % %  % %.%  .% % % %'
p109
aS'% % %. %%%.%%.   % % %%%% %% % % %'
p110
aS'% % %% %    %% %%  % %    .%.%.% %'
p111
aS'% %.%..%..  % .   %% .  % %% % % %'
p112
aS'% % %%%%%o%   % %  % %   o. .% % %'
p113
aS'% % %. .o   % %  % %   %o%%%%% % %'
p114
aS'% % % %% %  . %%   . %  ..%..%.% %'
p115
aS'% %.%.%.    % %  %% %%    % %% % %'
p116
aS'% % % %% %%%% % %   .%%.%%% .% % %'
p117
aS'% % % %.  %.% %  % % %    %.%%.% %'
p118
aS'% % % %%% %.% % %  % %  .   .%.% %'
p119
aS'%1%   %.  % . %      %%%.%%%%%%% %'
p120
aS'%3% % %.%   %      %.%..         %'
p121
aS'%%%%%%%%%%%%%%%%%%%%%%%%%%%%%%%%%%'
p122
asbsS'blueTeamName'
p123
S'Blue'
p124
sS'actions'
p125
(lp126
(I1
S'South'
p127
tp128
a(I2
S'North'
p129
tp130
a(I3
g127
tp131
a(I0
g129
tp132
a(I1
g127
tp133
a(I2
g129
tp134
a(I3
g127
tp135
a(I0
g129
tp136
a(I1
g127
tp137
a(I2
g129
tp138
a(I3
g127
tp139
a(I0
g129
tp140
a(I1
g127
tp141
a(I2
g129
tp142
a(I3
g127
tp143
a(I0
g129
tp144
a(I1
g127
tp145
a(I2
g129
tp146
a(I3
g127
tp147
a(I0
g129
tp148
a(I1
g127
tp149
a(I2
g129
tp150
a(I3
g127
tp151
a(I0
g129
tp152
a(I1
g127
tp153
a(I2
g129
tp154
a(I3
g127
tp155
a(I0
g129
tp156
a(I1
g127
tp157
a(I2
g129
tp158
a(I3
g127
tp159
a(I0
g129
tp160
a(I1
g127
tp161
a(I2
g129
tp162
a(I3
g127
tp163
a(I0
g129
tp164
a(I1
g127
tp165
a(I2
g129
tp166
a(I3
g127
tp167
a(I0
g129
tp168
a(I1
g127
tp169
a(I2
g129
tp170
a(I3
g127
tp171
a(I0
g129
tp172
a(I1
g127
tp173
a(I2
g129
tp174
a(I3
g127
tp175
a(I0
g129
tp176
a(I1
g127
tp177
a(I2
g129
tp178
a(I3
g127
tp179
a(I0
g129
tp180
a(I1
g127
tp181
a(I2
g129
tp182
a(I3
g127
tp183
a(I0
g129
tp184
a(I1
S'West'
p185
tp186
a(I2
g129
tp187
a(I3
g127
tp188
a(I0
S'East'
p189
tp190
a(I1
g185
tp191
a(I2
g189
tp192
a(I3
g185
tp193
a(I0
g189
tp194
a(I1
g185
tp195
a(I2
g189
tp196
a(I3
g185
tp197
a(I0
g189
tp198
a(I1
g185
tp199
a(I2
g189
tp200
a(I3
g185
tp201
a(I0
g189
tp202
a(I1
g185
tp203
a(I2
g189
tp204
a(I3
g185
tp205
a(I0
g189
tp206
a(I1
g185
tp207
a(I2
g189
tp208
a(I3
g185
tp209
a(I0
g189
tp210
a(I1
g185
tp211
a(I2
g189
tp212
a(I3
g185
tp213
a(I0
g189
tp214
a(I1
g185
tp215
a(I2
g189
tp216
a(I3
g185
tp217
a(I0
g189
tp218
a(I1
g129
tp219
a(I2
g189
tp220
a(I3
g185
tp221
a(I0
g127
tp222
a(I1
g129
tp223
a(I2
g127
tp224
a(I3
g129
tp225
a(I0
g127
tp226
a(I1
g129
tp227
a(I2
g127
tp228
a(I3
g129
tp229
a(I0
g127
tp230
a(I1
g185
tp231
a(I2
g127
tp232
a(I3
g129
tp233
a(I0
g189
tp234
a(I1
g129
tp235
a(I2
g189
tp236
a(I3
g185
tp237
a(I0
g127
tp238
a(I1
g129
tp239
a(I2
g127
tp240
a(I3
g129
tp241
a(I0
g127
tp242
a(I1
g185
tp243
a(I2
g127
tp244
a(I3
g129
tp245
a(I0
g127
tp246
a(I1
g129
tp247
a(I2
g127
tp248
a(I3
g189
tp249
a(I0
g189
tp250
a(I1
g129
tp251
a(I2
g189
tp252
a(I3
g129
tp253
a(I0
g127
tp254
a(I1
g185
tp255
a(I2
g127
tp256
a(I3
g189
tp257
a(I0
g189
tp258
a(I1
g185
tp259
a(I2
g189
tp260
a(I3
g127
tp261
a(I0
g189
tp262
a(I1
g127
tp263
a(I2
g189
tp264
a(I3
g185
tp265
a(I0
g129
tp266
a(I1
g185
tp267
a(I2
g129
tp268
a(I3
g129
tp269
a(I0
g189
tp270
a(I1
g185
tp271
a(I2
g189
tp272
a(I3
g127
tp273
a(I0
g189
tp274
a(I1
g129
tp275
a(I2
g189
tp276
a(I3
g189
tp277
a(I0
g127
tp278
a(I1
g127
tp279
a(I2
g127
tp280
a(I3
g129
tp281
a(I0
g127
tp282
a(I1
g129
tp283
a(I2
g127
tp284
a(I3
g185
tp285
a(I0
g189
tp286
a(I1
g129
tp287
a(I2
g189
tp288
a(I3
g127
tp289
a(I0
g127
tp290
a(I1
g185
tp291
a(I2
g127
tp292
a(I3
g189
tp293
a(I0
g189
tp294
a(I1
g129
tp295
a(I2
g189
tp296
a(I3
g129
tp297
a(I0
g189
tp298
a(I1
g185
tp299
a(I2
g189
tp300
a(I3
g185
tp301
a(I0
g189
tp302
a(I1
g185
tp303
a(I2
g189
tp304
a(I3
g185
tp305
a(I0
g189
tp306
a(I1
g185
tp307
a(I2
g127
tp308
a(I3
g185
tp309
a(I0
g129
tp310
a(I1
g185
tp311
a(I2
g127
tp312
a(I3
g129
tp313
a(I0
g127
tp314
a(I1
g127
tp315
a(I2
g189
tp316
a(I3
g185
tp317
a(I0
S'Stop'
p318
tp319
a(I1
g127
tp320
a(I2
g127
tp321
a(I3
g185
tp322
a(I0
g185
tp323
a(I1
g127
tp324
a(I2
g127
tp325
a(I3
g127
tp326
a(I0
g185
tp327
a(I1
g185
tp328
a(I2
g127
tp329
a(I3
g185
tp330
a(I0
g185
tp331
a(I1
g185
tp332
a(I2
g127
tp333
a(I3
g185
tp334
a(I0
g185
tp335
a(I1
g185
tp336
a(I2
g129
tp337
a(I3
g189
tp338
a(I0
g318
tp339
a(I1
g127
tp340
a(I2
g129
tp341
a(I3
g127
tp342
a(I0
g129
tp343
a(I1
g185
tp344
a(I2
g129
tp345
a(I3
g127
tp346
a(I0
g185
tp347
a(I1
g185
tp348
a(I2
g127
tp349
a(I3
g189
tp350
a(I0
g129
tp351
a(I1
g185
tp352
a(I2
g127
tp353
a(I3
g127
tp354
a(I0
g129
tp355
a(I1
g189
tp356
a(I2
g185
tp357
a(I3
g127
tp358
a(I0
g185
tp359
a(I1
g129
tp360
a(I2
g318
tp361
a(I3
g127
tp362
a(I0
g185
tp363
a(I1
g129
tp364
a(I2
g185
tp365
a(I3
g185
tp366
a(I0
g189
tp367
a(I1
g185
tp368
a(I2
g129
tp369
a(I3
g185
tp370
a(I0
g129
tp371
a(I1
g189
tp372
a(I2
g185
tp373
a(I3
g185
tp374
a(I0
g129
tp375
a(I1
g189
tp376
a(I2
g189
tp377
a(I3
g129
tp378
a(I0
g189
tp379
a(I1
g129
tp380
a(I2
g129
tp381
a(I3
g189
tp382
a(I0
g129
tp383
a(I1
g129
tp384
a(I2
g129
tp385
a(I3
g129
tp386
a(I0
g129
tp387
a(I1
g185
tp388
a(I2
g189
tp389
a(I3
g129
tp390
a(I0
g129
tp391
a(I1
g189
tp392
a(I2
g129
tp393
a(I3
g189
tp394
a(I0
g129
tp395
a(I1
g189
tp396
a(I2
g129
tp397
a(I3
g129
tp398
a(I0
g189
tp399
a(I1
g129
tp400
a(I2
g185
tp401
a(I3
g129
tp402
a(I0
g189
tp403
a(I1
g129
tp404
a(I2
g185
tp405
a(I3
g185
tp406
a(I0
g189
tp407
a(I1
g129
tp408
a(I2
g185
tp409
a(I3
g189
tp410
a(I0
g189
tp411
a(I1
g185
tp412
a(I2
g189
tp413
a(I3
g185
tp414
a(I0
g189
tp415
a(I1
g129
tp416
a(I2
g185
tp417
a(I3
g189
tp418
a(I0
g127
tp419
a(I1
g129
tp420
a(I2
g189
tp421
a(I3
g185
tp422
a(I0
g189
tp423
a(I1
g129
tp424
a(I2
g185
tp425
a(I3
g189
tp426
a(I0
g189
tp427
a(I1
g189
tp428
a(I2
g189
tp429
a(I3
g185
tp430
a(I0
g127
tp431
a(I1
g189
tp432
a(I2
g185
tp433
a(I3
g189
tp434
a(I0
g127
tp435
a(I1
g185
tp436
a(I2
g189
tp437
a(I3
g185
tp438
a(I0
g129
tp439
a(I1
g185
tp440
a(I2
g185
tp441
a(I3
g189
tp442
a(I0
g129
tp443
a(I1
g127
tp444
a(I2
g189
tp445
a(I3
g185
tp446
a(I0
g129
tp447
a(I1
g127
tp448
a(I2
g185
tp449
a(I3
g185
tp450
a(I0
g189
tp451
a(I1
g185
tp452
a(I2
g129
tp453
a(I3
g189
tp454
a(I0
g189
tp455
a(I1
g185
tp456
a(I2
g127
tp457
a(I3
g189
tp458
a(I0
g127
tp459
a(I1
g185
tp460
a(I2
g189
tp461
a(I3
g185
tp462
a(I0
g189
tp463
a(I1
g127
tp464
a(I2
g185
tp465
a(I3
g189
tp466
a(I0
g189
tp467
a(I1
g127
tp468
a(I2
g189
tp469
a(I3
g185
tp470
a(I0
g129
tp471
a(I1
g185
tp472
a(I2
g185
tp473
a(I3
g189
tp474
a(I0
g127
tp475
a(I1
g189
tp476
a(I2
g189
tp477
a(I3
g185
tp478
a(I0
g185
tp479
a(I1
g129
tp480
a(I2
g185
tp481
a(I3
g185
tp482
a(I0
g185
tp483
a(I1
g129
tp484
a(I2
g129
tp485
a(I3
g189
tp486
a(I0
g127
tp487
a(I1
g185
tp488
a(I2
g127
tp489
a(I3
g189
tp490
a(I0
g127
tp491
a(I1
g189
tp492
a(I2
g189
tp493
a(I3
g185
tp494
a(I0
g189
tp495
a(I1
g127
tp496
a(I2
g185
tp497
a(I3
g189
tp498
a(I0
g189
tp499
a(I1
g127
tp500
a(I2
g189
tp501
a(I3
g185
tp502
a(I0
g185
tp503
a(I1
g127
tp504
a(I2
g185
tp505
a(I3
g129
tp506
a(I0
g127
tp507
a(I1
g127
tp508
a(I2
g189
tp509
a(I3
g127
tp510
a(I0
g127
tp511
a(I1
g185
tp512
a(I2
g185
tp513
a(I3
g189
tp514
a(I0
g189
tp515
a(I1
g189
tp516
a(I2
g189
tp517
a(I3
g185
tp518
a(I0
g185
tp519
a(I1
g129
tp520
a(I2
g185
tp521
a(I3
g129
tp522
a(I0
g127
tp523
a(I1
g127
tp524
a(I2
g189
tp525
a(I3
g127
tp526
a(I0
g127
tp527
a(I1
g129
tp528
a(I2
g189
tp529
a(I3
g127
tp530
a(I0
g189
tp531
a(I1
g129
tp532
a(I2
g189
tp533
a(I3
g127
tp534
a(I0
g189
tp535
a(I1
g129
tp536
a(I2
g189
tp537
a(I3
g127
tp538
a(I0
g189
tp539
a(I1
g129
tp540
a(I2
g129
tp541
a(I3
g127
tp542
a(I0
g129
tp543
a(I1
g189
tp544
a(I2
g189
tp545
a(I3
g127
tp546
a(I0
g129
tp547
a(I1
g189
tp548
a(I2
g189
tp549
a(I3
g127
tp550
a(I0
g127
tp551
a(I1
g189
tp552
a(I2
g127
tp553
a(I3
g127
tp554
a(I0
g127
tp555
a(I1
g189
tp556
a(I2
g189
tp557
a(I3
g127
tp558
a(I0
g185
tp559
a(I1
g127
tp560
a(I2
g189
tp561
a(I3
g127
tp562
a(I0
g185
tp563
a(I1
g127
tp564
a(I2
g129
tp565
a(I3
g127
tp566
a(I0
g185
tp567
a(I1
g127
tp568
a(I2
g127
tp569
a(I3
g127
tp570
a(I0
g185
tp571
a(I1
g127
tp572
a(I2
g189
tp573
a(I3
g127
tp574
a(I0
g185
tp575
a(I1
g185
tp576
a(I2
g127
tp577
a(I3
g127
tp578
a(I0
g129
tp579
a(I1
g127
tp580
a(I2
g185
tp581
a(I3
g127
tp582
a(I0
g185
tp583
a(I1
g127
tp584
a(I2
g185
tp585
a(I3
g127
tp586
a(I0
g185
tp587
a(I1
g189
tp588
a(I2
g127
tp589
a(I3
g185
tp590
a(I0
g189
tp591
a(I1
g189
tp592
a(I2
g127
tp593
a(I3
g185
tp594
a(I0
g127
tp595
a(I1
g129
tp596
a(I2
g127
tp597
a(I3
g185
tp598
a(I0
g189
tp599
a(I1
g189
tp600
a(I2
g189
tp601
a(I3
g185
tp602
a(I0
g189
tp603
a(I1
g189
tp604
a(I2
g127
tp605
a(I3
g189
tp606
a(I0
g189
tp607
a(I1
g129
tp608
a(I2
g127
tp609
a(I3
g189
tp610
a(I0
g189
tp611
a(I1
g189
tp612
a(I2
g185
tp613
a(I3
g185
tp614
a(I0
g189
tp615
a(I1
g189
tp616
a(I2
g185
tp617
a(I3
g185
tp618
a(I0
g189
tp619
a(I1
g189
tp620
a(I2
g189
tp621
a(I3
g189
tp622
a(I0
g129
tp623
a(I1
g189
tp624
a(I2
g189
tp625
a(I3
g189
tp626
a(I0
g129
tp627
a(I1
g185
tp628
a(I2
g129
tp629
a(I3
g185
tp630
a(I0
g129
tp631
a(I1
g185
tp632
a(I2
g129
tp633
a(I3
g185
tp634
a(I0
g129
tp635
a(I1
g185
tp636
a(I2
g189
tp637
a(I3
g189
tp638
a(I0
g129
tp639
a(I1
g129
tp640
a(I2
g189
tp641
a(I3
g189
tp642
a(I0
g129
tp643
a(I1
g129
tp644
a(I2
g189
tp645
a(I3
g189
tp646
a(I0
g189
tp647
a(I1
g185
tp648
a(I2
g189
tp649
a(I3
g189
tp650
a(I0
g189
tp651
a(I1
g129
tp652
a(I2
g185
tp653
a(I3
g185
tp654
a(I0
g127
tp655
a(I1
g129
tp656
a(I2
g129
tp657
a(I3
g185
tp658
a(I0
g127
tp659
a(I1
g129
tp660
a(I2
g129
tp661
a(I3
g185
tp662
a(I0
g127
tp663
a(I1
g129
tp664
a(I2
g189
tp665
a(I3
g189
tp666
a(I0
g127
tp667
a(I1
g127
tp668
a(I2
g185
tp669
a(I3
g189
tp670
a(I0
g127
tp671
a(I1
g127
tp672
a(I2
g129
tp673
a(I3
g185
tp674
a(I0
g127
tp675
a(I1
g127
tp676
a(I2
g129
tp677
a(I3
g185
tp678
a(I0
g127
tp679
a(I1
g127
tp680
a(I2
g189
tp681
a(I3
g185
tp682
a(I0
g127
tp683
a(I1
g189
tp684
a(I2
g185
tp685
a(I3
g185
tp686
a(I0
g129
tp687
a(I1
g127
tp688
a(I2
g127
tp689
a(I3
g189
tp690
a(I0
g129
tp691
a(I1
g127
tp692
a(I2
g127
tp693
a(I3
g189
tp694
a(I0
g129
tp695
a(I1
g185
tp696
a(I2
g127
tp697
a(I3
g189
tp698
a(I0
g129
tp699
a(I1
g127
tp700
a(I2
g127
tp701
a(I3
g189
tp702
a(I0
g129
tp703
a(I1
g127
tp704
a(I2
g185
tp705
a(I3
g185
tp706
a(I0
g129
tp707
a(I1
g127
tp708
a(I2
g185
tp709
a(I3
g185
tp710
a(I0
g129
tp711
a(I1
g127
tp712
a(I2
g129
tp713
a(I3
g185
tp714
a(I0
g129
tp715
a(I1
g127
tp716
a(I2
g185
tp717
a(I3
g185
tp718
a(I0
g185
tp719
a(I1
g127
tp720
a(I2
g185
tp721
a(I3
g185
tp722
a(I0
g185
tp723
a(I1
g127
tp724
a(I2
g129
tp725
a(I3
g185
tp726
a(I0
g127
tp727
a(I1
g127
tp728
a(I2
g129
tp729
a(I3
g185
tp730
a(I0
g127
tp731
a(I1
g185
tp732
a(I2
g129
tp733
a(I3
g129
tp734
a(I0
g127
tp735
a(I1
g185
tp736
a(I2
g185
tp737
a(I3
g129
tp738
a(I0
g127
tp739
a(I1
g129
tp740
a(I2
g129
tp741
a(I3
g129
tp742
a(I0
g127
tp743
a(I1
g129
tp744
a(I2
g185
tp745
a(I3
g185
tp746
a(I0
g127
tp747
a(I1
g127
tp748
a(I2
g185
tp749
a(I3
g129
tp750
a(I0
g185
tp751
a(I1
g127
tp752
a(I2
g127
tp753
a(I3
g129
tp754
a(I0
g185
tp755
a(I1
g127
tp756
a(I2
g185
tp757
a(I3
g185
tp758
a(I0
g185
tp759
a(I1
g185
tp760
a(I2
g185
tp761
a(I3
g129
tp762
a(I0
g185
tp763
a(I1
g185
tp764
a(I2
g185
tp765
a(I3
g189
tp766
a(I0
g189
tp767
a(I1
g129
tp768
a(I2
g185
tp769
a(I3
g189
tp770
a(I0
g189
tp771
a(I1
g185
tp772
a(I2
g127
tp773
a(I3
g129
tp774
a(I0
g189
tp775
a(I1
g185
tp776
a(I2
g185
tp777
a(I3
g129
tp778
a(I0
g189
tp779
a(I1
g127
tp780
a(I2
g127
tp781
a(I3
g189
tp782
a(I0
g129
tp783
a(I1
g129
tp784
a(I2
g127
tp785
a(I3
g189
tp786
a(I0
g129
tp787
a(I1
g189
tp788
a(I2
g127
tp789
a(I3
g189
tp790
a(I0
g129
tp791
a(I1
g189
tp792
a(I2
g127
tp793
a(I3
g189
tp794
a(I0
g129
tp795
a(I1
g129
tp796
a(I2
g127
tp797
a(I3
g129
tp798
a(I0
g129
tp799
a(I1
g129
tp800
a(I2
g185
tp801
a(I3
g129
tp802
a(I0
g129
tp803
a(I1
g185
tp804
a(I2
g185
tp805
a(I3
g129
tp806
a(I0
g189
tp807
a(I1
g185
tp808
a(I2
g129
tp809
a(I3
g129
tp810
a(I0
g189
tp811
a(I1
g189
tp812
a(I2
g185
tp813
a(I3
g129
tp814
a(I0
g127
tp815
a(I1
g129
tp816
a(I2
g185
tp817
a(I3
g129
tp818
a(I0
g127
tp819
a(I1
g129
tp820
a(I2
g127
tp821
a(I3
g189
tp822
a(I0
g127
tp823
a(I1
g129
tp824
a(I2
g185
tp825
a(I3
g189
tp826
a(I0
g127
tp827
a(I1
g129
tp828
a(I2
g189
tp829
a(I3
g127
tp830
a(I0
g127
tp831
a(I1
g185
tp832
a(I2
g185
tp833
a(I3
g127
tp834
a(I0
g127
tp835
a(I1
g185
tp836
a(I2
g189
tp837
a(I3
g127
tp838
a(I0
g127
tp839
a(I1
g185
tp840
a(I2
g129
tp841
a(I3
g127
tp842
a(I0
g127
tp843
a(I1
g127
tp844
a(I2
g189
tp845
a(I3
g127
tp846
a(I0
g127
tp847
a(I1
g127
tp848
a(I2
g189
tp849
a(I3
g127
tp850
a(I0
g127
tp851
a(I1
g127
tp852
a(I2
g129
tp853
a(I3
g127
tp854
a(I0
g318
tp855
a(I1
g127
tp856
a(I2
g129
tp857
a(I3
g127
tp858
a(I0
g127
tp859
a(I1
g127
tp860
a(I2
g129
tp861
a(I3
g127
tp862
a(I0
g127
tp863
a(I1
g127
tp864
a(I2
g129
tp865
asS'length'
p866
I1200
sS'agents'
p867
(lp868
(igame
Agent
p869
(dp870
S'index'
p871
I0
sba(igame
Agent
p872
(dp873
g871
I0
sba(igame
Agent
p874
(dp875
g871
I0
sba(igame
Agent
p876
(dp877
g871
I0
sbasS'redTeamName'
p878
S'Red'
p879
s.