(dp1
S'layout'
p2
(ilayout
Layout
p3
(dp4
S'capsules'
p5
(lp6
(I8
I8
tp7
a(I24
I8
tp8
a(I9
I9
tp9
a(I25
I9
tp10
asS'numGhosts'
p11
I4
sS'food'
p12
(igame
Grid
p13
(dp14
S'CELLS_PER_INT'
p15
I30
sS'width'
p16
I34
sS'data'
p17
(lp18
(lp19
I00
aI00
aI00
aI00
aI00
aI00
aI00
aI00
aI00
aI00
aI00
aI00
aI00
aI00
aI00
aI00
aI00
aI00
aa(lp20
I00
aI00
aI00
aI00
aI00
aI00
aI00
aI00
aI00
aI00
aI00
aI00
aI00
aI00
aI00
aI00
aI00
aI00
aa(lp21
I00
aI00
aI00
aI00
aI00
aI00
aI00
aI00
aI00
aI00
aI00
aI00
aI00
aI00
aI00
aI00
aI00
aI00
aa(lp22
I00
aI00
aI00
aI00
aI00
aI00
aI01
aI00
aI00
aI00
aI01
aI00
aI00
aI01
aI01
aI00
aI00
aI00
aa(lp23
I00
aI00
aI00
aI00
aI00
aI00
aI00
aI00
aI00
aI00
aI00
aI00
aI00
aI00
aI00
aI00
aI00
aI00
aa(lp24
I00
aI00
aI00
aI00
aI00
aI00
aI01
aI00
aI01
aI00
aI01
aI00
aI01
aI00
aI01
aI00
aI00
aI00
aa(lp25
I00
aI00
aI00
aI00
aI00
aI00
aI00
aI00
aI00
aI00
aI01
aI00
aI00
aI01
aI00
aI00
aI00
aI00
aa(lp26
I00
aI01
aI01
aI00
aI01
aI00
aI01
aI00
aI01
aI00
aI00
aI00
aI00
aI00
aI00
aI00
aI00
aI00
aa(lp27
I00
aI00
aI00
aI00
aI00
aI00
aI00
aI00
aI00
aI00
aI01
aI00
aI00
aI00
aI00
aI00
aI00
aI00
aa(lp28
I00
aI00
aI00
aI00
aI00
aI00
aI00
aI00
aI00
aI00
aI01
aI00
aI00
aI00
aI01
aI01
aI00
aI00
aa(lp29
I00
aI00
aI00
aI00
aI00
aI00
aI00
aI00
aI00
aI00
aI00
aI00
aI01
aI00
aI00
aI00
aI01
aI00
aa(lp30
I00
aI00
aI00
aI01
aI01
aI00
aI00
aI00
aI00
aI00
aI00
aI00
aI00
aI00
aI00
aI00
aI01
aI00
aa(lp31
I00
aI00
aI01
aI00
aI00
aI00
aI00
aI01
aI00
aI00
aI00
aI00
aI00
aI00
aI00
aI00
aI00
aI00
aa(lp32
I00
aI00
aI00
aI00
aI00
aI00
aI00
aI00
aI00
aI00
aI00
aI00
aI01
aI00
aI00
aI00
aI01
aI00
aa(lp33
I00
aI00
aI00
aI00
aI00
aI00
aI00
aI00
aI00
aI00
aI01
aI00
aI00
aI00
aI00
aI00
aI00
aI00
aa(lp34
I00
aI00
aI00
aI00
aI00
aI00
aI00
aI00
aI00
aI00
aI00
aI00
aI00
aI00
aI00
aI00
aI00
aI00
aa(lp35
I00
aI00
aI00
aI00
aI00
aI00
aI00
aI00
aI00
aI00
aI00
aI00
aI00
aI00
aI00
aI00
aI00
aI00
aa(lp36
I00
aI00
aI00
aI00
aI00
aI00
aI00
aI00
aI00
aI00
aI00
aI00
aI00
aI00
aI00
aI00
aI00
aI00
aa(lp37
I00
aI00
aI00
aI00
aI00
aI00
aI00
aI00
aI00
aI00
aI00
aI00
aI00
aI00
aI00
aI00
aI00
aI00
aa(lp38
I00
aI00
aI00
aI00
aI00
aI00
aI00
aI01
aI00
aI00
aI00
aI00
aI00
aI00
aI00
aI00
aI00
aI00
aa(lp39
I00
aI01
aI00
aI00
aI00
aI01
aI00
aI00
aI00
aI00
aI00
aI00
aI00
aI00
aI00
aI00
aI00
aI00
aa(lp40
I00
aI00
aI00
aI00
aI00
aI00
aI00
aI00
aI00
aI00
aI01
aI00
aI00
aI00
aI00
aI01
aI00
aI00
aa(lp41
I00
aI01
aI00
aI00
aI00
aI00
aI00
aI00
aI00
aI00
aI00
aI00
aI00
aI01
aI01
aI00
aI00
aI00
aa(lp42
I00
aI01
aI00
aI00
aI00
aI01
aI00
aI00
aI00
aI00
aI00
aI00
aI00
aI00
aI00
aI00
aI00
aI00
aa(lp43
I00
aI00
aI01
aI01
aI00
aI00
aI00
aI01
aI00
aI00
aI00
aI00
aI00
aI00
aI00
aI00
aI00
aI00
aa(lp44
I00
aI00
aI00
aI00
aI00
aI00
aI00
aI01
aI00
aI00
aI00
aI00
aI00
aI00
aI00
aI00
aI00
aI00
aa(lp45
I00
aI00
aI00
aI00
aI00
aI00
aI00
aI00
aI00
aI01
aI00
aI01
aI00
aI01
aI00
aI01
aI01
aI00
aa(lp46
I00
aI00
aI00
aI00
aI01
aI00
aI00
aI01
aI00
aI00
aI00
aI00
aI00
aI00
aI00
aI00
aI00
aI00
aa(lp47
I00
aI00
aI00
aI01
aI00
aI01
aI00
aI01
aI00
aI01
aI00
aI01
aI00
aI00
aI00
aI00
aI00
aI00
aa(lp48
I00
aI00
aI00
aI00
aI00
aI00
aI00
aI00
aI00
aI00
aI00
aI00
aI00
aI00
aI00
aI00
aI00
aI00
aa(lp49
I00
aI00
aI00
aI01
aI01
aI00
aI00
aI01
aI00
aI00
aI00
aI01
aI00
aI00
aI00
aI00
aI00
aI00
aa(lp50
I00
aI00
aI00
aI00
aI00
aI00
aI00
aI00
aI00
aI00
aI00
aI00
aI00
aI00
aI00
aI00
aI00
aI00
aa(lp51
I00
aI00
aI00
aI00
aI00
aI00
aI00
aI00
aI00
aI00
aI00
aI00
aI00
aI00
aI00
aI00
aI00
aI00
aa(lp52
I00
aI00
aI00
aI00
aI00
aI00
aI00
aI00
aI00
aI00
aI00
aI00
aI00
aI00
aI00
aI00
aI00
aI00
aasS'height'
p53
I18
sbsS'agentPositions'
p54
(lp55
(I00
(I1
I2
tp56
tp57
a(I00
(I32
I15
tp58
tp59
a(I00
(I1
I1
tp60
tp61
a(I00
(I32
I16
tp62
tp63
asg53
I18
sg16
I34
sS'walls'
p64
(igame
Grid
p65
(dp66
g15
I30
sg16
I34
sg17
(lp67
(lp68
I01
aI01
aI01
aI01
aI01
aI01
aI01
aI01
aI01
aI01
aI01
aI01
aI01
aI01
aI01
aI01
aI01
aI01
aa(lp69
I01
aI00
aI00
aI00
aI00
aI00
aI00
aI00
aI00
aI00
aI00
aI00
aI00
aI00
aI00
aI00
aI00
aI01
aa(lp70
I01
aI01
aI01
aI01
aI01
aI01
aI01
aI01
aI01
aI01
aI01
aI01
aI01
aI01
aI01
aI01
aI00
aI01
aa(lp71
I01
aI00
aI00
aI00
aI00
aI00
aI00
aI00
aI00
aI00
aI00
aI00
aI00
aI00
aI00
aI01
aI00
aI01
aa(lp72
I01
aI01
aI00
aI01
aI01
aI01
aI01
aI01
aI01
aI01
aI01
aI01
aI01
aI01
aI01
aI01
aI00
aI01
aa(lp73
I01
aI00
aI00
aI00
aI00
aI00
aI00
aI00
aI00
aI01
aI00
aI01
aI00
aI01
aI00
aI01
aI00
aI01
aa(lp74
I01
aI01
aI01
aI01
aI01
aI01
aI01
aI01
aI00
aI01
aI00
aI00
aI00
aI00
aI00
aI01
aI00
aI01
aa(lp75
I01
aI00
aI00
aI01
aI00
aI01
aI00
aI01
aI00
aI01
aI01
aI01
aI01
aI01
aI00
aI01
aI00
aI01
aa(lp76
I01
aI01
aI00
aI01
aI00
aI00
aI00
aI00
aI00
aI01
aI00
aI00
aI01
aI00
aI00
aI01
aI00
aI01
aa(lp77
I01
aI00
aI00
aI00
aI00
aI01
aI00
aI01
aI00
aI00
aI00
aI00
aI01
aI00
aI00
aI00
aI00
aI01
aa(lp78
I01
aI00
aI01
aI01
aI01
aI01
aI00
aI00
aI00
aI01
aI00
aI00
aI00
aI00
aI00
aI01
aI00
aI01
aa(lp79
I01
aI00
aI00
aI00
aI00
aI01
aI00
aI00
aI00
aI00
aI00
aI00
aI01
aI00
aI00
aI01
aI00
aI01
aa(lp80
I01
aI01
aI00
aI01
aI01
aI01
aI01
aI00
aI01
aI00
aI01
aI01
aI01
aI01
aI01
aI01
aI01
aI01
aa(lp81
I01
aI00
aI00
aI00
aI00
aI00
aI00
aI00
aI00
aI00
aI00
aI01
aI00
aI00
aI00
aI00
aI00
aI01
aa(lp82
I01
aI00
aI01
aI01
aI01
aI01
aI01
aI01
aI01
aI01
aI00
aI00
aI00
aI01
aI01
aI00
aI01
aI01
aa(lp83
I01
aI00
aI00
aI00
aI00
aI00
aI00
aI01
aI00
aI00
aI00
aI01
aI00
aI00
aI00
aI00
aI00
aI01
aa(lp84
I01
aI00
aI00
aI01
aI00
aI01
aI00
aI00
aI00
aI01
aI00
aI01
aI00
aI01
aI00
aI00
aI00
aI01
aa(lp85
I01
aI00
aI00
aI00
aI01
aI00
aI01
aI00
aI01
aI00
aI00
aI00
aI01
aI00
aI01
aI00
aI00
aI01
aa(lp86
I01
aI00
aI00
aI00
aI00
aI00
aI01
aI00
aI00
aI00
aI01
aI00
aI00
aI00
aI00
aI00
aI00
aI01
aa(lp87
I01
aI01
aI00
aI01
aI01
aI00
aI00
aI00
aI01
aI01
aI01
aI01
aI01
aI01
aI01
aI01
aI00
aI01
aa(lp88
I01
aI00
aI00
aI00
aI00
aI00
aI01
aI00
aI00
aI00
aI00
aI00
aI00
aI00
aI00
aI00
aI00
aI01
aa(lp89
I01
aI01
aI01
aI01
aI01
aI01
aI01
aI01
aI00
aI01
aI00
aI01
aI01
aI01
aI01
aI00
aI01
aI01
aa(lp90
I01
aI00
aI01
aI00
aI00
aI01
aI00
aI00
aI00
aI00
aI00
aI00
aI01
aI00
aI00
aI00
aI00
aI01
aa(lp91
I01
aI00
aI01
aI00
aI00
aI00
aI00
aI00
aI01
aI00
aI00
aI00
aI01
aI01
aI01
aI01
aI00
aI01
aa(lp92
I01
aI00
aI00
aI00
aI00
aI01
aI00
aI00
aI00
aI00
aI01
aI00
aI01
aI00
aI00
aI00
aI00
aI01
aa(lp93
I01
aI00
aI01
aI00
aI00
aI01
aI00
aI00
aI01
aI00
aI00
aI00
aI00
aI00
aI01
aI00
aI01
aI01
aa(lp94
I01
aI00
aI01
aI00
aI01
aI01
aI01
aI01
aI01
aI00
aI01
aI00
aI01
aI00
aI01
aI00
aI00
aI01
aa(lp95
I01
aI00
aI01
aI00
aI00
aI00
aI00
aI00
aI01
aI00
aI01
aI01
aI01
aI01
aI01
aI01
aI01
aI01
aa(lp96
I01
aI00
aI01
aI00
aI01
aI00
aI01
aI00
aI01
aI00
aI00
aI00
aI00
aI00
aI00
aI00
aI00
aI01
aa(lp97
I01
aI00
aI01
aI01
aI01
aI01
aI01
aI01
aI01
aI01
aI01
aI01
aI01
aI01
aI01
aI00
aI01
aI01
aa(lp98
I01
aI00
aI01
aI00
aI00
aI00
aI00
aI00
aI00
aI00
aI00
aI00
aI00
aI00
aI00
aI00
aI00
aI01
aa(lp99
I01
aI00
aI01
aI01
aI01
aI01
aI01
aI01
aI01
aI01
aI01
aI01
aI01
aI01
aI01
aI01
aI01
aI01
aa(lp100
I01
aI00
aI00
aI00
aI00
aI00
aI00
aI00
aI00
aI00
aI00
aI00
aI00
aI00
aI00
aI00
aI00
aI01
aa(lp101
I01
aI01
aI01
aI01
aI01
aI01
aI01
aI01
aI01
aI01
aI01
aI01
aI01
aI01
aI01
aI01
aI01
aI01
aasg53
I18
sbsS'totalFood'
p102
I60
sS'layoutText'
p103
(lp104
S'%%%%%%%%%%%%%%%%%%%%%%%%%%%%%%%%%%'
p105
aS'%         ..%.%      %   %.% % %4%'
p106
aS'% %%%%%%%.%%%      % . %  .%   %2%'
p107
aS'% %.%.   .  % %  % % %.% %%% % % %'
p108
aS'% %.%%.%    % % %  % %.%  .% % % %'
p109
aS'% % %. %%%.%%.   % % %%%% %% % % %'
p110
aS'% % %% %    %% %%  % %    .%.%.% %'
p111
aS'% %.%..%..  % .   %% .  % %% % % %'
p112
aS'% % %%%%%o%   % %  % %   o. .% % %'
p113
aS'% % %. .o   % %  % %   %o%%%%% % %'
p114
aS'% % % %% %  . %%   . %  ..%..%.% %'
p115
aS'% %.%.%.    % %  %% %%    % %% % %'
p116
aS'% % % %% %%%% % %   .%%.%%% .% % %'
p117
aS'% % % %.  %.% %  % % %    %.%%.% %'
p118
aS'% % % %%% %.% % %  % %  .   .%.% %'
p119
aS'%1%   %.  % . %      %%%.%%%%%%% %'
p120
aS'%3% % %.%   %      %.%..         %'
p121
aS'%%%%%%%%%%%%%%%%%%%%%%%%%%%%%%%%%%'
p122
asbsS'blueTeamName'
p123
S'Blue'
p124
sS'actions'
p125
(lp126
(I1
S'South'
p127
tp128
a(I2
S'North'
p129
tp130
a(I3
g127
tp131
a(I0
g127
tp132
a(I1
g127
tp133
a(I2
g129
tp134
a(I3
g127
tp135
a(I0
g129
tp136
a(I1
g127
tp137
a(I2
g129
tp138
a(I3
g127
tp139
a(I0
g129
tp140
a(I1
g127
tp141
a(I2
g129
tp142
a(I3
g127
tp143
a(I0
g129
tp144
a(I1
g127
tp145
a(I2
g129
tp146
a(I3
g127
tp147
a(I0
g129
tp148
a(I1
g127
tp149
a(I2
g129
tp150
a(I3
g127
tp151
a(I0
g129
tp152
a(I1
g127
tp153
a(I2
g129
tp154
a(I3
g127
tp155
a(I0
g129
tp156
a(I1
g127
tp157
a(I2
g129
tp158
a(I3
g127
tp159
a(I0
g129
tp160
a(I1
g127
tp161
a(I2
g129
tp162
a(I3
g127
tp163
a(I0
g129
tp164
a(I1
g127
tp165
a(I2
g129
tp166
a(I3
g127
tp167
a(I0
g129
tp168
a(I1
g127
tp169
a(I2
g129
tp170
a(I3
g127
tp171
a(I0
g129
tp172
a(I1
g127
tp173
a(I2
g129
tp174
a(I3
g127
tp175
a(I0
g129
tp176
a(I1
g127
tp177
a(I2
g129
tp178
a(I3
g127
tp179
a(I0
g129
tp180
a(I1
g127
tp181
a(I2
g129
tp182
a(I3
g127
tp183
a(I0
g129
tp184
a(I1
S'West'
p185
tp186
a(I2
g129
tp187
a(I3
g127
tp188
a(I0
g129
tp189
a(I1
g185
tp190
a(I2
S'East'
p191
tp192
a(I3
g185
tp193
a(I0
g129
tp194
a(I1
g185
tp195
a(I2
g191
tp196
a(I3
g185
tp197
a(I0
g191
tp198
a(I1
g185
tp199
a(I2
g191
tp200
a(I3
g185
tp201
a(I0
g191
tp202
a(I1
g185
tp203
a(I2
g191
tp204
a(I3
g185
tp205
a(I0
g191
tp206
a(I1
g185
tp207
a(I2
g191
tp208
a(I3
g185
tp209
a(I0
g191
tp210
a(I1
g185
tp211
a(I2
g191
tp212
a(I3
g185
tp213
a(I0
g191
tp214
a(I1
g185
tp215
a(I2
g191
tp216
a(I3
g185
tp217
a(I0
g191
tp218
a(I1
g129
tp219
a(I2
g191
tp220
a(I3
g185
tp221
a(I0
g191
tp222
a(I1
g129
tp223
a(I2
g127
tp224
a(I3
g129
tp225
a(I0
g191
tp226
a(I1
g129
tp227
a(I2
g127
tp228
a(I3
g129
tp229
a(I0
g127
tp230
a(I1
g185
tp231
a(I2
g191
tp232
a(I3
g129
tp233
a(I0
g127
tp234
a(I1
g129
tp235
a(I2
g127
tp236
a(I3
g185
tp237
a(I0
g191
tp238
a(I1
g129
tp239
a(I2
g127
tp240
a(I3
g129
tp241
a(I0
g127
tp242
a(I1
g185
tp243
a(I2
g127
tp244
a(I3
g129
tp245
a(I0
g127
tp246
a(I1
g129
tp247
a(I2
g191
tp248
a(I3
g191
tp249
a(I0
g127
tp250
a(I1
g129
tp251
a(I2
g127
tp252
a(I3
g129
tp253
a(I0
g191
tp254
a(I1
g185
tp255
a(I2
g127
tp256
a(I3
g191
tp257
a(I0
g127
tp258
a(I1
g185
tp259
a(I2
g127
tp260
a(I3
g127
tp261
a(I0
g127
tp262
a(I1
g127
tp263
a(I2
g127
tp264
a(I3
g185
tp265
a(I0
g191
tp266
a(I1
g185
tp267
a(I2
g127
tp268
a(I3
g129
tp269
a(I0
g191
tp270
a(I1
g185
tp271
a(I2
S'Stop'
p272
tp273
a(I3
g127
tp274
a(I0
g129
tp275
a(I1
g129
tp276
a(I2
g272
tp277
a(I3
g191
tp278
a(I0
g191
tp279
a(I1
g129
tp280
a(I2
g272
tp281
a(I3
g129
tp282
a(I0
g191
tp283
a(I1
g127
tp284
a(I2
g272
tp285
a(I3
g185
tp286
a(I0
g127
tp287
a(I1
g129
tp288
a(I2
g272
tp289
a(I3
g127
tp290
a(I0
g127
tp291
a(I1
g185
tp292
a(I2
g272
tp293
a(I3
g185
tp294
a(I0
g191
tp295
a(I1
g129
tp296
a(I2
g272
tp297
a(I3
g129
tp298
a(I0
g127
tp299
a(I1
g129
tp300
a(I2
g272
tp301
a(I3
g191
tp302
a(I0
g191
tp303
a(I1
g127
tp304
a(I2
g272
tp305
a(I3
g185
tp306
a(I0
g191
tp307
a(I1
g185
tp308
a(I2
g129
tp309
a(I3
g185
tp310
a(I0
g191
tp311
a(I1
g185
tp312
a(I2
g191
tp313
a(I3
g129
tp314
a(I0
g127
tp315
a(I1
g185
tp316
a(I2
g185
tp317
a(I3
g185
tp318
a(I0
g127
tp319
a(I1
g185
tp320
a(I2
g191
tp321
a(I3
g185
tp322
a(I0
g191
tp323
a(I1
g191
tp324
a(I2
g191
tp325
a(I3
g127
tp326
a(I0
g127
tp327
a(I1
g129
tp328
a(I2
g129
tp329
a(I3
g185
tp330
a(I0
g127
tp331
a(I1
g129
tp332
a(I2
g129
tp333
a(I3
g127
tp334
a(I0
g127
tp335
a(I1
g185
tp336
a(I2
g185
tp337
a(I3
g127
tp338
a(I0
g127
tp339
a(I1
g129
tp340
a(I2
g191
tp341
a(I3
g191
tp342
a(I0
g272
tp343
a(I1
g129
tp344
a(I2
g129
tp345
a(I3
g127
tp346
a(I0
g272
tp347
a(I1
g129
tp348
a(I2
g191
tp349
a(I3
g127
tp350
a(I0
g129
tp351
a(I1
g129
tp352
a(I2
g185
tp353
a(I3
g127
tp354
a(I0
g129
tp355
a(I1
g127
tp356
a(I2
g191
tp357
a(I3
g129
tp358
a(I0
g129
tp359
a(I1
g127
tp360
a(I2
g129
tp361
a(I3
g129
tp362
a(I0
g129
tp363
a(I1
g129
tp364
a(I2
g129
tp365
a(I3
g129
tp366
a(I0
g129
tp367
a(I1
g191
tp368
a(I2
g185
tp369
a(I3
g185
tp370
a(I0
g129
tp371
a(I1
g191
tp372
a(I2
g129
tp373
a(I3
g129
tp374
a(I0
g129
tp375
a(I1
g127
tp376
a(I2
g129
tp377
a(I3
g129
tp378
a(I0
g129
tp379
a(I1
g127
tp380
a(I2
g129
tp381
a(I3
g191
tp382
a(I0
g129
tp383
a(I1
g127
tp384
a(I2
g191
tp385
a(I3
g129
tp386
a(I0
g129
tp387
a(I1
g185
tp388
a(I2
g185
tp389
a(I3
g191
tp390
a(I0
g129
tp391
a(I1
g127
tp392
a(I2
g127
tp393
a(I3
g191
tp394
a(I0
g129
tp395
a(I1
g127
tp396
a(I2
g127
tp397
a(I3
g127
tp398
a(I0
g129
tp399
a(I1
g185
tp400
a(I2
g127
tp401
a(I3
g191
tp402
a(I0
g129
tp403
a(I1
g127
tp404
a(I2
g191
tp405
a(I3
g127
tp406
a(I0
g129
tp407
a(I1
g185
tp408
a(I2
g127
tp409
a(I3
g191
tp410
a(I0
g191
tp411
a(I1
g185
tp412
a(I2
g127
tp413
a(I3
g129
tp414
a(I0
g191
tp415
a(I1
g129
tp416
a(I2
g185
tp417
a(I3
g191
tp418
a(I0
g191
tp419
a(I1
g185
tp420
a(I2
g127
tp421
a(I3
g127
tp422
a(I0
g191
tp423
a(I1
g185
tp424
a(I2
g185
tp425
a(I3
g185
tp426
a(I0
g191
tp427
a(I1
g185
tp428
a(I2
g185
tp429
a(I3
g185
tp430
a(I0
g191
tp431
a(I1
g129
tp432
a(I2
g129
tp433
a(I3
g191
tp434
a(I0
g191
tp435
a(I1
g191
tp436
a(I2
g185
tp437
a(I3
g129
tp438
a(I0
g191
tp439
a(I1
g185
tp440
a(I2
g185
tp441
a(I3
g127
tp442
a(I0
g127
tp443
a(I1
g191
tp444
a(I2
g129
tp445
a(I3
g191
tp446
a(I0
g127
tp447
a(I1
g127
tp448
a(I2
g191
tp449
a(I3
g185
tp450
a(I0
g191
tp451
a(I1
g127
tp452
a(I2
g191
tp453
a(I3
g129
tp454
a(I0
g127
tp455
a(I1
g127
tp456
a(I2
g127
tp457
a(I3
g185
tp458
a(I0
g127
tp459
a(I1
g127
tp460
a(I2
g127
tp461
a(I3
g127
tp462
a(I0
g127
tp463
a(I1
g127
tp464
a(I2
g127
tp465
a(I3
g191
tp466
a(I0
g191
tp467
a(I1
g127
tp468
a(I2
g127
tp469
a(I3
g129
tp470
a(I0
g127
tp471
a(I1
g127
tp472
a(I2
g127
tp473
a(I3
g191
tp474
a(I0
g127
tp475
a(I1
g127
tp476
a(I2
g272
tp477
a(I3
g127
tp478
a(I0
g191
tp479
a(I1
g127
tp480
a(I2
g272
tp481
a(I3
g185
tp482
a(I0
g191
tp483
a(I1
g127
tp484
a(I2
g272
tp485
a(I3
g185
tp486
a(I0
g129
tp487
a(I1
g127
tp488
a(I2
g272
tp489
a(I3
g185
tp490
a(I0
g191
tp491
a(I1
g127
tp492
a(I2
g272
tp493
a(I3
g191
tp494
a(I0
g191
tp495
a(I1
g127
tp496
a(I2
g272
tp497
a(I3
g191
tp498
a(I0
g191
tp499
a(I1
g127
tp500
a(I2
g272
tp501
a(I3
g129
tp502
a(I0
g191
tp503
a(I1
g185
tp504
a(I2
g272
tp505
a(I3
g191
tp506
a(I0
g127
tp507
a(I1
g185
tp508
a(I2
g272
tp509
a(I3
g127
tp510
a(I0
g191
tp511
a(I1
g185
tp512
a(I2
g272
tp513
a(I3
g185
tp514
a(I0
g127
tp515
a(I1
g185
tp516
a(I2
g272
tp517
a(I3
g185
tp518
a(I0
g127
tp519
a(I1
g185
tp520
a(I2
g272
tp521
a(I3
g191
tp522
a(I0
g191
tp523
a(I1
g185
tp524
a(I2
g272
tp525
a(I3
g191
tp526
a(I0
g127
tp527
a(I1
g185
tp528
a(I2
g272
tp529
a(I3
g129
tp530
a(I0
g127
tp531
a(I1
g185
tp532
a(I2
g272
tp533
a(I3
g185
tp534
a(I0
g191
tp535
a(I1
g129
tp536
a(I2
g272
tp537
a(I3
g127
tp538
a(I0
g127
tp539
a(I1
g129
tp540
a(I2
g185
tp541
a(I3
g185
tp542
a(I0
g129
tp543
a(I1
g129
tp544
a(I2
g191
tp545
a(I3
g129
tp546
a(I0
g185
tp547
a(I1
g185
tp548
a(I2
g272
tp549
a(I3
g185
tp550
a(I0
g191
tp551
a(I1
g129
tp552
a(I2
g129
tp553
a(I3
g129
tp554
a(I0
g127
tp555
a(I1
g129
tp556
a(I2
g191
tp557
a(I3
g185
tp558
a(I0
g127
tp559
a(I1
g185
tp560
a(I2
g191
tp561
a(I3
g185
tp562
a(I0
g127
tp563
a(I1
g129
tp564
a(I2
g185
tp565
a(I3
g191
tp566
a(I0
g127
tp567
a(I1
g129
tp568
a(I2
g185
tp569
a(I3
g191
tp570
a(I0
g129
tp571
a(I1
g185
tp572
a(I2
g127
tp573
a(I3
g127
tp574
a(I0
g185
tp575
a(I1
g185
tp576
a(I2
g272
tp577
a(I3
g191
tp578
a(I0
g191
tp579
a(I1
g127
tp580
a(I2
g272
tp581
a(I3
g185
tp582
a(I0
g129
tp583
a(I1
g185
tp584
a(I2
g272
tp585
a(I3
g129
tp586
a(I0
g127
tp587
a(I1
g185
tp588
a(I2
g272
tp589
a(I3
g129
tp590
a(I0
g129
tp591
a(I1
g185
tp592
a(I2
g272
tp593
a(I3
g191
tp594
a(I0
g129
tp595
a(I1
g185
tp596
a(I2
g272
tp597
a(I3
g191
tp598
a(I0
g129
tp599
a(I1
g129
tp600
a(I2
g272
tp601
a(I3
g127
tp602
a(I0
g185
tp603
a(I1
g185
tp604
a(I2
g272
tp605
a(I3
g127
tp606
a(I0
g129
tp607
a(I1
g129
tp608
a(I2
g272
tp609
a(I3
g191
tp610
a(I0
g129
tp611
a(I1
g129
tp612
a(I2
g272
tp613
a(I3
g127
tp614
a(I0
g191
tp615
a(I1
g185
tp616
a(I2
g272
tp617
a(I3
g129
tp618
a(I0
g129
tp619
a(I1
g185
tp620
a(I2
g272
tp621
a(I3
g185
tp622
a(I0
g129
tp623
a(I1
g127
tp624
a(I2
g129
tp625
a(I3
g191
tp626
a(I0
g129
tp627
a(I1
g129
tp628
a(I2
g191
tp629
a(I3
g127
tp630
a(I0
g191
tp631
a(I1
g191
tp632
a(I2
g191
tp633
a(I3
g185
tp634
a(I0
g185
tp635
a(I1
g129
tp636
a(I2
g129
tp637
a(I3
g129
tp638
a(I0
g127
tp639
a(I1
g129
tp640
a(I2
g129
tp641
a(I3
g191
tp642
a(I0
g127
tp643
a(I1
g191
tp644
a(I2
g129
tp645
a(I3
g185
tp646
a(I0
g127
tp647
a(I1
g129
tp648
a(I2
g191
tp649
a(I3
g185
tp650
a(I0
g185
tp651
a(I1
g129
tp652
a(I2
g129
tp653
a(I3
g185
tp654
a(I0
g185
tp655
a(I1
g129
tp656
a(I2
g129
tp657
a(I3
g129
tp658
a(I0
g185
tp659
a(I1
g129
tp660
a(I2
g191
tp661
a(I3
g127
tp662
a(I0
g185
tp663
a(I1
g191
tp664
a(I2
g129
tp665
a(I3
g191
tp666
a(I0
g127
tp667
a(I1
g191
tp668
a(I2
g129
tp669
a(I3
g191
tp670
a(I0
g129
tp671
a(I1
g191
tp672
a(I2
g129
tp673
a(I3
g129
tp674
a(I0
g191
tp675
a(I1
g191
tp676
a(I2
g191
tp677
a(I3
g127
tp678
a(I0
g191
tp679
a(I1
g191
tp680
a(I2
g129
tp681
a(I3
g127
tp682
a(I0
g191
tp683
a(I1
g127
tp684
a(I2
g272
tp685
a(I3
g129
tp686
a(I0
g191
tp687
a(I1
g191
tp688
a(I2
g272
tp689
a(I3
g185
tp690
a(I0
g129
tp691
a(I1
g185
tp692
a(I2
g272
tp693
a(I3
g185
tp694
a(I0
g129
tp695
a(I1
g127
tp696
a(I2
g272
tp697
a(I3
g129
tp698
a(I0
g129
tp699
a(I1
g129
tp700
a(I2
g272
tp701
a(I3
g185
tp702
a(I0
g129
tp703
a(I1
g191
tp704
a(I2
g272
tp705
a(I3
g185
tp706
a(I0
g129
tp707
a(I1
g185
tp708
a(I2
g272
tp709
a(I3
g129
tp710
a(I0
g129
tp711
a(I1
g127
tp712
a(I2
g272
tp713
a(I3
g129
tp714
a(I0
g129
tp715
a(I1
g129
tp716
a(I2
g272
tp717
a(I3
g191
tp718
a(I0
g129
tp719
a(I1
g191
tp720
a(I2
g272
tp721
a(I3
g191
tp722
a(I0
g129
tp723
a(I1
g185
tp724
a(I2
g272
tp725
a(I3
g127
tp726
a(I0
g129
tp727
a(I1
g127
tp728
a(I2
g272
tp729
a(I3
g191
tp730
a(I0
g129
tp731
a(I1
g129
tp732
a(I2
g272
tp733
a(I3
g191
tp734
a(I0
g129
tp735
a(I1
g191
tp736
a(I2
g272
tp737
a(I3
g127
tp738
a(I0
g129
tp739
a(I1
g185
tp740
a(I2
g272
tp741
a(I3
g127
tp742
a(I0
g129
tp743
a(I1
g127
tp744
a(I2
g272
tp745
a(I3
g127
tp746
a(I0
g129
tp747
a(I1
g129
tp748
a(I2
g272
tp749
a(I3
g129
tp750
a(I0
g129
tp751
a(I1
g191
tp752
a(I2
g272
tp753
a(I3
g191
tp754
a(I0
g129
tp755
a(I1
g185
tp756
a(I2
g272
tp757
a(I3
g127
tp758
a(I0
g129
tp759
a(I1
g127
tp760
a(I2
g272
tp761
a(I3
g185
tp762
a(I0
g129
tp763
a(I1
g129
tp764
a(I2
g272
tp765
a(I3
g129
tp766
a(I0
g129
tp767
a(I1
g191
tp768
a(I2
g272
tp769
a(I3
g191
tp770
a(I0
g129
tp771
a(I1
g185
tp772
a(I2
g272
tp773
a(I3
g185
tp774
a(I0
g191
tp775
a(I1
g127
tp776
a(I2
g272
tp777
a(I3
g127
tp778
a(I0
g191
tp779
a(I1
g129
tp780
a(I2
g272
tp781
a(I3
g191
tp782
a(I0
g191
tp783
a(I1
g191
tp784
a(I2
g272
tp785
a(I3
g129
tp786
a(I0
g191
tp787
a(I1
g185
tp788
a(I2
g272
tp789
a(I3
g185
tp790
a(I0
g191
tp791
a(I1
g127
tp792
a(I2
g272
tp793
a(I3
g127
tp794
a(I0
g191
tp795
a(I1
g129
tp796
a(I2
g272
tp797
a(I3
g129
tp798
a(I0
g191
tp799
a(I1
g191
tp800
a(I2
g272
tp801
a(I3
g129
tp802
a(I0
g191
tp803
a(I1
g185
tp804
a(I2
g272
tp805
a(I3
g127
tp806
a(I0
g127
tp807
a(I1
g127
tp808
a(I2
g272
tp809
a(I3
g191
tp810
a(I0
g127
tp811
a(I1
g129
tp812
a(I2
g272
tp813
a(I3
g185
tp814
a(I0
g191
tp815
a(I1
g191
tp816
a(I2
g272
tp817
a(I3
g127
tp818
a(I0
g127
tp819
a(I1
g185
tp820
a(I2
g272
tp821
a(I3
g129
tp822
a(I0
g127
tp823
a(I1
g127
tp824
a(I2
g272
tp825
a(I3
g191
tp826
a(I0
g127
tp827
a(I1
g129
tp828
a(I2
g272
tp829
a(I3
g127
tp830
a(I0
g191
tp831
a(I1
g191
tp832
a(I2
g272
tp833
a(I3
g185
tp834
a(I0
g127
tp835
a(I1
g185
tp836
a(I2
g272
tp837
a(I3
g129
tp838
a(I0
g127
tp839
a(I1
g127
tp840
a(I2
g272
tp841
a(I3
g191
tp842
a(I0
g191
tp843
a(I1
g129
tp844
a(I2
g272
tp845
a(I3
g127
tp846
a(I0
g191
tp847
a(I1
g191
tp848
a(I2
g272
tp849
a(I3
g185
tp850
a(I0
g129
tp851
a(I1
g185
tp852
a(I2
g272
tp853
a(I3
g129
tp854
a(I0
g191
tp855
a(I1
g127
tp856
a(I2
g272
tp857
a(I3
g191
tp858
a(I0
g191
tp859
a(I1
g129
tp860
a(I2
g272
tp861
a(I3
g185
tp862
a(I0
g191
tp863
a(I1
g191
tp864
a(I2
g272
tp865
a(I3
g185
tp866
a(I0
g191
tp867
a(I1
g185
tp868
a(I2
g272
tp869
a(I3
g191
tp870
a(I0
g127
tp871
a(I1
g127
tp872
a(I2
g272
tp873
a(I3
g191
tp874
a(I0
g191
tp875
a(I1
g129
tp876
a(I2
g272
tp877
a(I3
g185
tp878
a(I0
g127
tp879
a(I1
g191
tp880
a(I2
g272
tp881
a(I3
g127
tp882
a(I0
g127
tp883
a(I1
g185
tp884
a(I2
g272
tp885
a(I3
g191
tp886
a(I0
g191
tp887
a(I1
g127
tp888
a(I2
g272
tp889
a(I3
g129
tp890
a(I0
g191
tp891
a(I1
g129
tp892
a(I2
g272
tp893
a(I3
g185
tp894
a(I0
g129
tp895
a(I1
g191
tp896
a(I2
g272
tp897
a(I3
g185
tp898
a(I0
g191
tp899
a(I1
g185
tp900
a(I2
g272
tp901
a(I3
g185
tp902
a(I0
g185
tp903
a(I1
g191
tp904
a(I2
g272
tp905
a(I3
g129
tp906
a(I0
g129
tp907
a(I1
g185
tp908
a(I2
g272
tp909
a(I3
g185
tp910
a(I0
g129
tp911
a(I1
g127
tp912
a(I2
g272
tp913
a(I3
g185
tp914
a(I0
g129
tp915
a(I1
g129
tp916
a(I2
g272
tp917
a(I3
g129
tp918
a(I0
g129
tp919
a(I1
g191
tp920
a(I2
g272
tp921
a(I3
g129
tp922
a(I0
g129
tp923
a(I1
g185
tp924
a(I2
g272
tp925
a(I3
g129
tp926
a(I0
g129
tp927
a(I1
g127
tp928
a(I2
g272
tp929
a(I3
g127
tp930
a(I0
g129
tp931
a(I1
g129
tp932
a(I2
g272
tp933
a(I3
g191
tp934
a(I0
g129
tp935
a(I1
g191
tp936
a(I2
g272
tp937
a(I3
g191
tp938
a(I0
g129
tp939
a(I1
g185
tp940
a(I2
g272
tp941
a(I3
g191
tp942
a(I0
g129
tp943
a(I1
g127
tp944
a(I2
g272
tp945
a(I3
g127
tp946
a(I0
g129
tp947
a(I1
g129
tp948
a(I2
g272
tp949
a(I3
g191
tp950
a(I0
g129
tp951
a(I1
g191
tp952
a(I2
g272
tp953
a(I3
g127
tp954
a(I0
g129
tp955
a(I1
g185
tp956
a(I2
g272
tp957
a(I3
g127
tp958
a(I0
g129
tp959
a(I1
g127
tp960
a(I2
g272
tp961
a(I3
g127
tp962
a(I0
g129
tp963
a(I1
g129
tp964
a(I2
g272
tp965
a(I3
g129
tp966
a(I0
g129
tp967
a(I1
g191
tp968
a(I2
g272
tp969
a(I3
g129
tp970
a(I0
g129
tp971
a(I1
g185
tp972
a(I2
g272
tp973
a(I3
g127
tp974
a(I0
g129
tp975
a(I1
g127
tp976
a(I2
g272
tp977
a(I3
g191
tp978
a(I0
g129
tp979
a(I1
g129
tp980
a(I2
g272
tp981
a(I3
g127
tp982
a(I0
g129
tp983
a(I1
g191
tp984
a(I2
g272
tp985
a(I3
g185
tp986
a(I0
g191
tp987
a(I1
g185
tp988
a(I2
g272
tp989
a(I3
g129
tp990
a(I0
g191
tp991
a(I1
g127
tp992
a(I2
g272
tp993
a(I3
g129
tp994
a(I0
g191
tp995
a(I1
g129
tp996
a(I2
g272
tp997
a(I3
g127
tp998
a(I0
g191
tp999
a(I1
g191
tp1000
a(I2
g272
tp1001
a(I3
g185
tp1002
a(I0
g191
tp1003
a(I1
g185
tp1004
a(I2
g272
tp1005
a(I3
g191
tp1006
a(I0
g191
tp1007
a(I1
g127
tp1008
a(I2
g272
tp1009
a(I3
g127
tp1010
a(I0
g191
tp1011
a(I1
g129
tp1012
a(I2
g272
tp1013
a(I3
g129
tp1014
a(I0
g191
tp1015
a(I1
g191
tp1016
a(I2
g272
tp1017
a(I3
g191
tp1018
a(I0
g127
tp1019
a(I1
g185
tp1020
a(I2
g272
tp1021
a(I3
g185
tp1022
a(I0
g127
tp1023
a(I1
g127
tp1024
a(I2
g272
tp1025
a(I3
g185
tp1026
a(I0
g191
tp1027
a(I1
g129
tp1028
a(I2
g272
tp1029
a(I3
g191
tp1030
a(I0
g127
tp1031
a(I1
g191
tp1032
a(I2
g272
tp1033
a(I3
g127
tp1034
a(I0
g127
tp1035
a(I1
g185
tp1036
a(I2
g272
tp1037
a(I3
g129
tp1038
a(I0
g127
tp1039
a(I1
g127
tp1040
a(I2
g272
tp1041
a(I3
g191
tp1042
a(I0
g191
tp1043
a(I1
g129
tp1044
a(I2
g272
tp1045
a(I3
g127
tp1046
a(I0
g127
tp1047
a(I1
g191
tp1048
a(I2
g272
tp1049
a(I3
g185
tp1050
a(I0
g127
tp1051
a(I1
g185
tp1052
a(I2
g272
tp1053
a(I3
g129
tp1054
a(I0
g191
tp1055
a(I1
g127
tp1056
a(I2
g272
tp1057
a(I3
g191
tp1058
a(I0
g191
tp1059
a(I1
g129
tp1060
a(I2
g272
tp1061
a(I3
g127
tp1062
a(I0
g129
tp1063
a(I1
g191
tp1064
a(I2
g272
tp1065
a(I3
g185
tp1066
a(I0
g191
tp1067
a(I1
g185
tp1068
a(I2
g272
tp1069
a(I3
g129
tp1070
a(I0
g191
tp1071
a(I1
g127
tp1072
a(I2
g272
tp1073
a(I3
g191
tp1074
a(I0
g191
tp1075
a(I1
g129
tp1076
a(I2
g272
tp1077
a(I3
g185
tp1078
a(I0
g191
tp1079
a(I1
g127
tp1080
a(I2
g272
tp1081
a(I3
g129
tp1082
a(I0
g129
tp1083
a(I1
g129
tp1084
a(I2
g272
tp1085
a(I3
g127
tp1086
a(I0
g127
tp1087
a(I1
g191
tp1088
a(I2
g272
tp1089
a(I3
g191
tp1090
a(I0
g129
tp1091
a(I1
g185
tp1092
a(I2
g272
tp1093
a(I3
g185
tp1094
a(I0
g127
tp1095
a(I1
g127
tp1096
a(I2
g272
tp1097
a(I3
g185
tp1098
a(I0
g129
tp1099
a(I1
g129
tp1100
a(I2
g272
tp1101
a(I3
g191
tp1102
a(I0
g127
tp1103
a(I1
g127
tp1104
a(I2
g272
tp1105
a(I3
g127
tp1106
a(I0
g129
tp1107
a(I1
g129
tp1108
a(I2
g272
tp1109
a(I3
g185
tp1110
a(I0
g127
tp1111
a(I1
g191
tp1112
a(I2
g272
tp1113
a(I3
g129
tp1114
a(I0
g129
tp1115
a(I1
g185
tp1116
a(I2
g272
tp1117
a(I3
g191
tp1118
a(I0
g127
tp1119
a(I1
g191
tp1120
a(I2
g272
tp1121
a(I3
g127
tp1122
a(I0
g129
tp1123
a(I1
g185
tp1124
a(I2
g272
tp1125
a(I3
g129
tp1126
a(I0
g127
tp1127
a(I1
g127
tp1128
a(I2
g272
tp1129
a(I3
g129
tp1130
a(I0
g129
tp1131
a(I1
g129
tp1132
a(I2
g272
tp1133
a(I3
g127
tp1134
a(I0
g127
tp1135
a(I1
g191
tp1136
a(I2
g272
tp1137
a(I3
g127
tp1138
a(I0
g129
tp1139
a(I1
g185
tp1140
a(I2
g272
tp1141
a(I3
g129
tp1142
a(I0
g127
tp1143
a(I1
g127
tp1144
a(I2
g272
tp1145
a(I3
g191
tp1146
a(I0
g129
tp1147
a(I1
g129
tp1148
a(I2
g272
tp1149
a(I3
g185
tp1150
a(I0
g127
tp1151
a(I1
g191
tp1152
a(I2
g272
tp1153
a(I3
g129
tp1154
a(I0
g129
tp1155
a(I1
g185
tp1156
a(I2
g272
tp1157
a(I3
g127
tp1158
a(I0
g127
tp1159
a(I1
g127
tp1160
a(I2
g272
tp1161
a(I3
g191
tp1162
a(I0
g129
tp1163
a(I1
g129
tp1164
a(I2
g272
tp1165
a(I3
g185
tp1166
a(I0
g127
tp1167
a(I1
g191
tp1168
a(I2
g272
tp1169
a(I3
g185
tp1170
a(I0
g129
tp1171
a(I1
g185
tp1172
a(I2
g272
tp1173
a(I3
g191
tp1174
a(I0
g127
tp1175
a(I1
g127
tp1176
a(I2
g272
tp1177
a(I3
g129
tp1178
a(I0
g129
tp1179
a(I1
g129
tp1180
a(I2
g272
tp1181
a(I3
g127
tp1182
a(I0
g127
tp1183
a(I1
g191
tp1184
a(I2
g272
tp1185
a(I3
g191
tp1186
a(I0
g129
tp1187
a(I1
g185
tp1188
a(I2
g272
tp1189
a(I3
g185
tp1190
a(I0
g127
tp1191
a(I1
g127
tp1192
a(I2
g272
tp1193
a(I3
g129
tp1194
a(I0
g129
tp1195
a(I1
g129
tp1196
a(I2
g272
tp1197
a(I3
g127
tp1198
a(I0
g127
tp1199
a(I1
g191
tp1200
a(I2
g272
tp1201
a(I3
g191
tp1202
a(I0
g129
tp1203
a(I1
g185
tp1204
a(I2
g272
tp1205
a(I3
g185
tp1206
a(I0
g127
tp1207
a(I1
g127
tp1208
a(I2
g272
tp1209
a(I3
g129
tp1210
a(I0
g129
tp1211
a(I1
g129
tp1212
a(I2
g272
tp1213
a(I3
g127
tp1214
a(I0
g127
tp1215
a(I1
g191
tp1216
a(I2
g272
tp1217
a(I3
g191
tp1218
a(I0
g129
tp1219
a(I1
g185
tp1220
a(I2
g272
tp1221
a(I3
g127
tp1222
a(I0
g127
tp1223
a(I1
g127
tp1224
a(I2
g272
tp1225
a(I3
g185
tp1226
a(I0
g129
tp1227
a(I1
g129
tp1228
a(I2
g272
tp1229
a(I3
g129
tp1230
a(I0
g127
tp1231
a(I1
g191
tp1232
a(I2
g272
tp1233
a(I3
g129
tp1234
a(I0
g129
tp1235
a(I1
g185
tp1236
a(I2
g272
tp1237
a(I3
g127
tp1238
a(I0
g127
tp1239
a(I1
g127
tp1240
a(I2
g272
tp1241
a(I3
g191
tp1242
a(I0
g129
tp1243
a(I1
g129
tp1244
a(I2
g272
tp1245
a(I3
g185
tp1246
a(I0
g127
tp1247
a(I1
g191
tp1248
a(I2
g272
tp1249
a(I3
g127
tp1250
a(I0
g129
tp1251
a(I1
g185
tp1252
a(I2
g272
tp1253
a(I3
g191
tp1254
a(I0
g127
tp1255
a(I1
g127
tp1256
a(I2
g272
tp1257
a(I3
g129
tp1258
a(I0
g129
tp1259
a(I1
g129
tp1260
a(I2
g272
tp1261
a(I3
g185
tp1262
a(I0
g127
tp1263
a(I1
g191
tp1264
a(I2
g272
tp1265
a(I3
g185
tp1266
a(I0
g129
tp1267
a(I1
g185
tp1268
a(I2
g272
tp1269
a(I3
g191
tp1270
a(I0
g127
tp1271
a(I1
g127
tp1272
a(I2
g272
tp1273
a(I3
g127
tp1274
a(I0
g129
tp1275
a(I1
g129
tp1276
a(I2
g272
tp1277
a(I3
g185
tp1278
a(I0
g127
tp1279
a(I1
g191
tp1280
a(I2
g272
tp1281
a(I3
g129
tp1282
a(I0
g129
tp1283
a(I1
g185
tp1284
a(I2
g272
tp1285
a(I3
g191
tp1286
a(I0
g127
tp1287
a(I1
g127
tp1288
a(I2
g272
tp1289
a(I3
g127
tp1290
a(I0
g129
tp1291
a(I1
g129
tp1292
a(I2
g272
tp1293
a(I3
g129
tp1294
a(I0
g127
tp1295
a(I1
g191
tp1296
a(I2
g272
tp1297
a(I3
g185
tp1298
a(I0
g129
tp1299
a(I1
g185
tp1300
a(I2
g272
tp1301
a(I3
g127
tp1302
a(I0
g127
tp1303
a(I1
g127
tp1304
a(I2
g272
tp1305
a(I3
g191
tp1306
a(I0
g129
tp1307
a(I1
g129
tp1308
a(I2
g272
tp1309
a(I3
g129
tp1310
a(I0
g127
tp1311
a(I1
g191
tp1312
a(I2
g272
tp1313
a(I3
g185
tp1314
a(I0
g129
tp1315
a(I1
g185
tp1316
a(I2
g272
tp1317
a(I3
g191
tp1318
a(I0
g127
tp1319
a(I1
g127
tp1320
a(I2
g272
tp1321
a(I3
g127
tp1322
a(I0
g129
tp1323
a(I1
g129
tp1324
a(I2
g272
tp1325
a(I3
g191
tp1326
a(I0
g127
tp1327
a(I1
g191
tp1328
a(I2
g272
tp1329
a(I3
g129
tp1330
a(I0
g129
tp1331
asS'length'
p1332
I1200
sS'agents'
p1333
(lp1334
(igame
Agent
p1335
(dp1336
S'index'
p1337
I0
sba(igame
Agent
p1338
(dp1339
g1337
I0
sba(igame
Agent
p1340
(dp1341
g1337
I0
sba(igame
Agent
p1342
(dp1343
g1337
I0
sbasS'redTeamName'
p1344
S'Red'
p1345
s.