(dp1
S'layout'
p2
(ilayout
Layout
p3
(dp4
S'capsules'
p5
(lp6
(I8
I8
tp7
a(I24
I8
tp8
a(I9
I9
tp9
a(I25
I9
tp10
asS'numGhosts'
p11
I4
sS'food'
p12
(igame
Grid
p13
(dp14
S'CELLS_PER_INT'
p15
I30
sS'width'
p16
I34
sS'data'
p17
(lp18
(lp19
I00
aI00
aI00
aI00
aI00
aI00
aI00
aI00
aI00
aI00
aI00
aI00
aI00
aI00
aI00
aI00
aI00
aI00
aa(lp20
I00
aI00
aI00
aI00
aI00
aI00
aI00
aI00
aI00
aI00
aI00
aI00
aI00
aI00
aI00
aI00
aI00
aI00
aa(lp21
I00
aI00
aI00
aI00
aI00
aI00
aI00
aI00
aI00
aI00
aI00
aI00
aI00
aI00
aI00
aI00
aI00
aI00
aa(lp22
I00
aI00
aI00
aI00
aI00
aI00
aI01
aI00
aI00
aI00
aI01
aI00
aI00
aI01
aI01
aI00
aI00
aI00
aa(lp23
I00
aI00
aI00
aI00
aI00
aI00
aI00
aI00
aI00
aI00
aI00
aI00
aI00
aI00
aI00
aI00
aI00
aI00
aa(lp24
I00
aI00
aI00
aI00
aI00
aI00
aI01
aI00
aI01
aI00
aI01
aI00
aI01
aI00
aI01
aI00
aI00
aI00
aa(lp25
I00
aI00
aI00
aI00
aI00
aI00
aI00
aI00
aI00
aI00
aI01
aI00
aI00
aI01
aI00
aI00
aI00
aI00
aa(lp26
I00
aI01
aI01
aI00
aI01
aI00
aI01
aI00
aI01
aI00
aI00
aI00
aI00
aI00
aI00
aI00
aI00
aI00
aa(lp27
I00
aI00
aI00
aI00
aI00
aI00
aI00
aI00
aI00
aI00
aI01
aI00
aI00
aI00
aI00
aI00
aI00
aI00
aa(lp28
I00
aI00
aI00
aI00
aI00
aI00
aI00
aI00
aI00
aI00
aI01
aI00
aI00
aI00
aI01
aI01
aI00
aI00
aa(lp29
I00
aI00
aI00
aI00
aI00
aI00
aI00
aI00
aI00
aI00
aI00
aI00
aI01
aI00
aI00
aI00
aI01
aI00
aa(lp30
I00
aI00
aI00
aI01
aI01
aI00
aI00
aI00
aI00
aI00
aI00
aI00
aI00
aI00
aI00
aI00
aI01
aI00
aa(lp31
I00
aI00
aI01
aI00
aI00
aI00
aI00
aI01
aI00
aI00
aI00
aI00
aI00
aI00
aI00
aI00
aI00
aI00
aa(lp32
I00
aI00
aI00
aI00
aI00
aI00
aI00
aI00
aI00
aI00
aI00
aI00
aI01
aI00
aI00
aI00
aI01
aI00
aa(lp33
I00
aI00
aI00
aI00
aI00
aI00
aI00
aI00
aI00
aI00
aI01
aI00
aI00
aI00
aI00
aI00
aI00
aI00
aa(lp34
I00
aI00
aI00
aI00
aI00
aI00
aI00
aI00
aI00
aI00
aI00
aI00
aI00
aI00
aI00
aI00
aI00
aI00
aa(lp35
I00
aI00
aI00
aI00
aI00
aI00
aI00
aI00
aI00
aI00
aI00
aI00
aI00
aI00
aI00
aI00
aI00
aI00
aa(lp36
I00
aI00
aI00
aI00
aI00
aI00
aI00
aI00
aI00
aI00
aI00
aI00
aI00
aI00
aI00
aI00
aI00
aI00
aa(lp37
I00
aI00
aI00
aI00
aI00
aI00
aI00
aI00
aI00
aI00
aI00
aI00
aI00
aI00
aI00
aI00
aI00
aI00
aa(lp38
I00
aI00
aI00
aI00
aI00
aI00
aI00
aI01
aI00
aI00
aI00
aI00
aI00
aI00
aI00
aI00
aI00
aI00
aa(lp39
I00
aI01
aI00
aI00
aI00
aI01
aI00
aI00
aI00
aI00
aI00
aI00
aI00
aI00
aI00
aI00
aI00
aI00
aa(lp40
I00
aI00
aI00
aI00
aI00
aI00
aI00
aI00
aI00
aI00
aI01
aI00
aI00
aI00
aI00
aI01
aI00
aI00
aa(lp41
I00
aI01
aI00
aI00
aI00
aI00
aI00
aI00
aI00
aI00
aI00
aI00
aI00
aI01
aI01
aI00
aI00
aI00
aa(lp42
I00
aI01
aI00
aI00
aI00
aI01
aI00
aI00
aI00
aI00
aI00
aI00
aI00
aI00
aI00
aI00
aI00
aI00
aa(lp43
I00
aI00
aI01
aI01
aI00
aI00
aI00
aI01
aI00
aI00
aI00
aI00
aI00
aI00
aI00
aI00
aI00
aI00
aa(lp44
I00
aI00
aI00
aI00
aI00
aI00
aI00
aI01
aI00
aI00
aI00
aI00
aI00
aI00
aI00
aI00
aI00
aI00
aa(lp45
I00
aI00
aI00
aI00
aI00
aI00
aI00
aI00
aI00
aI01
aI00
aI01
aI00
aI01
aI00
aI01
aI01
aI00
aa(lp46
I00
aI00
aI00
aI00
aI01
aI00
aI00
aI01
aI00
aI00
aI00
aI00
aI00
aI00
aI00
aI00
aI00
aI00
aa(lp47
I00
aI00
aI00
aI01
aI00
aI01
aI00
aI01
aI00
aI01
aI00
aI01
aI00
aI00
aI00
aI00
aI00
aI00
aa(lp48
I00
aI00
aI00
aI00
aI00
aI00
aI00
aI00
aI00
aI00
aI00
aI00
aI00
aI00
aI00
aI00
aI00
aI00
aa(lp49
I00
aI00
aI00
aI01
aI01
aI00
aI00
aI01
aI00
aI00
aI00
aI01
aI00
aI00
aI00
aI00
aI00
aI00
aa(lp50
I00
aI00
aI00
aI00
aI00
aI00
aI00
aI00
aI00
aI00
aI00
aI00
aI00
aI00
aI00
aI00
aI00
aI00
aa(lp51
I00
aI00
aI00
aI00
aI00
aI00
aI00
aI00
aI00
aI00
aI00
aI00
aI00
aI00
aI00
aI00
aI00
aI00
aa(lp52
I00
aI00
aI00
aI00
aI00
aI00
aI00
aI00
aI00
aI00
aI00
aI00
aI00
aI00
aI00
aI00
aI00
aI00
aasS'height'
p53
I18
sbsS'agentPositions'
p54
(lp55
(I00
(I1
I2
tp56
tp57
a(I00
(I32
I15
tp58
tp59
a(I00
(I1
I1
tp60
tp61
a(I00
(I32
I16
tp62
tp63
asg53
I18
sg16
I34
sS'walls'
p64
(igame
Grid
p65
(dp66
g15
I30
sg16
I34
sg17
(lp67
(lp68
I01
aI01
aI01
aI01
aI01
aI01
aI01
aI01
aI01
aI01
aI01
aI01
aI01
aI01
aI01
aI01
aI01
aI01
aa(lp69
I01
aI00
aI00
aI00
aI00
aI00
aI00
aI00
aI00
aI00
aI00
aI00
aI00
aI00
aI00
aI00
aI00
aI01
aa(lp70
I01
aI01
aI01
aI01
aI01
aI01
aI01
aI01
aI01
aI01
aI01
aI01
aI01
aI01
aI01
aI01
aI00
aI01
aa(lp71
I01
aI00
aI00
aI00
aI00
aI00
aI00
aI00
aI00
aI00
aI00
aI00
aI00
aI00
aI00
aI01
aI00
aI01
aa(lp72
I01
aI01
aI00
aI01
aI01
aI01
aI01
aI01
aI01
aI01
aI01
aI01
aI01
aI01
aI01
aI01
aI00
aI01
aa(lp73
I01
aI00
aI00
aI00
aI00
aI00
aI00
aI00
aI00
aI01
aI00
aI01
aI00
aI01
aI00
aI01
aI00
aI01
aa(lp74
I01
aI01
aI01
aI01
aI01
aI01
aI01
aI01
aI00
aI01
aI00
aI00
aI00
aI00
aI00
aI01
aI00
aI01
aa(lp75
I01
aI00
aI00
aI01
aI00
aI01
aI00
aI01
aI00
aI01
aI01
aI01
aI01
aI01
aI00
aI01
aI00
aI01
aa(lp76
I01
aI01
aI00
aI01
aI00
aI00
aI00
aI00
aI00
aI01
aI00
aI00
aI01
aI00
aI00
aI01
aI00
aI01
aa(lp77
I01
aI00
aI00
aI00
aI00
aI01
aI00
aI01
aI00
aI00
aI00
aI00
aI01
aI00
aI00
aI00
aI00
aI01
aa(lp78
I01
aI00
aI01
aI01
aI01
aI01
aI00
aI00
aI00
aI01
aI00
aI00
aI00
aI00
aI00
aI01
aI00
aI01
aa(lp79
I01
aI00
aI00
aI00
aI00
aI01
aI00
aI00
aI00
aI00
aI00
aI00
aI01
aI00
aI00
aI01
aI00
aI01
aa(lp80
I01
aI01
aI00
aI01
aI01
aI01
aI01
aI00
aI01
aI00
aI01
aI01
aI01
aI01
aI01
aI01
aI01
aI01
aa(lp81
I01
aI00
aI00
aI00
aI00
aI00
aI00
aI00
aI00
aI00
aI00
aI01
aI00
aI00
aI00
aI00
aI00
aI01
aa(lp82
I01
aI00
aI01
aI01
aI01
aI01
aI01
aI01
aI01
aI01
aI00
aI00
aI00
aI01
aI01
aI00
aI01
aI01
aa(lp83
I01
aI00
aI00
aI00
aI00
aI00
aI00
aI01
aI00
aI00
aI00
aI01
aI00
aI00
aI00
aI00
aI00
aI01
aa(lp84
I01
aI00
aI00
aI01
aI00
aI01
aI00
aI00
aI00
aI01
aI00
aI01
aI00
aI01
aI00
aI00
aI00
aI01
aa(lp85
I01
aI00
aI00
aI00
aI01
aI00
aI01
aI00
aI01
aI00
aI00
aI00
aI01
aI00
aI01
aI00
aI00
aI01
aa(lp86
I01
aI00
aI00
aI00
aI00
aI00
aI01
aI00
aI00
aI00
aI01
aI00
aI00
aI00
aI00
aI00
aI00
aI01
aa(lp87
I01
aI01
aI00
aI01
aI01
aI00
aI00
aI00
aI01
aI01
aI01
aI01
aI01
aI01
aI01
aI01
aI00
aI01
aa(lp88
I01
aI00
aI00
aI00
aI00
aI00
aI01
aI00
aI00
aI00
aI00
aI00
aI00
aI00
aI00
aI00
aI00
aI01
aa(lp89
I01
aI01
aI01
aI01
aI01
aI01
aI01
aI01
aI00
aI01
aI00
aI01
aI01
aI01
aI01
aI00
aI01
aI01
aa(lp90
I01
aI00
aI01
aI00
aI00
aI01
aI00
aI00
aI00
aI00
aI00
aI00
aI01
aI00
aI00
aI00
aI00
aI01
aa(lp91
I01
aI00
aI01
aI00
aI00
aI00
aI00
aI00
aI01
aI00
aI00
aI00
aI01
aI01
aI01
aI01
aI00
aI01
aa(lp92
I01
aI00
aI00
aI00
aI00
aI01
aI00
aI00
aI00
aI00
aI01
aI00
aI01
aI00
aI00
aI00
aI00
aI01
aa(lp93
I01
aI00
aI01
aI00
aI00
aI01
aI00
aI00
aI01
aI00
aI00
aI00
aI00
aI00
aI01
aI00
aI01
aI01
aa(lp94
I01
aI00
aI01
aI00
aI01
aI01
aI01
aI01
aI01
aI00
aI01
aI00
aI01
aI00
aI01
aI00
aI00
aI01
aa(lp95
I01
aI00
aI01
aI00
aI00
aI00
aI00
aI00
aI01
aI00
aI01
aI01
aI01
aI01
aI01
aI01
aI01
aI01
aa(lp96
I01
aI00
aI01
aI00
aI01
aI00
aI01
aI00
aI01
aI00
aI00
aI00
aI00
aI00
aI00
aI00
aI00
aI01
aa(lp97
I01
aI00
aI01
aI01
aI01
aI01
aI01
aI01
aI01
aI01
aI01
aI01
aI01
aI01
aI01
aI00
aI01
aI01
aa(lp98
I01
aI00
aI01
aI00
aI00
aI00
aI00
aI00
aI00
aI00
aI00
aI00
aI00
aI00
aI00
aI00
aI00
aI01
aa(lp99
I01
aI00
aI01
aI01
aI01
aI01
aI01
aI01
aI01
aI01
aI01
aI01
aI01
aI01
aI01
aI01
aI01
aI01
aa(lp100
I01
aI00
aI00
aI00
aI00
aI00
aI00
aI00
aI00
aI00
aI00
aI00
aI00
aI00
aI00
aI00
aI00
aI01
aa(lp101
I01
aI01
aI01
aI01
aI01
aI01
aI01
aI01
aI01
aI01
aI01
aI01
aI01
aI01
aI01
aI01
aI01
aI01
aasg53
I18
sbsS'totalFood'
p102
I60
sS'layoutText'
p103
(lp104
S'%%%%%%%%%%%%%%%%%%%%%%%%%%%%%%%%%%'
p105
aS'%         ..%.%      %   %.% % %4%'
p106
aS'% %%%%%%%.%%%      % . %  .%   %2%'
p107
aS'% %.%.   .  % %  % % %.% %%% % % %'
p108
aS'% %.%%.%    % % %  % %.%  .% % % %'
p109
aS'% % %. %%%.%%.   % % %%%% %% % % %'
p110
aS'% % %% %    %% %%  % %    .%.%.% %'
p111
aS'% %.%..%..  % .   %% .  % %% % % %'
p112
aS'% % %%%%%o%   % %  % %   o. .% % %'
p113
aS'% % %. .o   % %  % %   %o%%%%% % %'
p114
aS'% % % %% %  . %%   . %  ..%..%.% %'
p115
aS'% %.%.%.    % %  %% %%    % %% % %'
p116
aS'% % % %% %%%% % %   .%%.%%% .% % %'
p117
aS'% % % %.  %.% %  % % %    %.%%.% %'
p118
aS'% % % %%% %.% % %  % %  .   .%.% %'
p119
aS'%1%   %.  % . %      %%%.%%%%%%% %'
p120
aS'%3% % %.%   %      %.%..         %'
p121
aS'%%%%%%%%%%%%%%%%%%%%%%%%%%%%%%%%%%'
p122
asbsS'blueTeamName'
p123
S'Blue'
p124
sS'actions'
p125
(lp126
(I1
S'South'
p127
tp128
a(I2
S'North'
p129
tp130
a(I3
g127
tp131
a(I0
g129
tp132
a(I1
g127
tp133
a(I2
g129
tp134
a(I3
g127
tp135
a(I0
g129
tp136
a(I1
g127
tp137
a(I2
g129
tp138
a(I3
g127
tp139
a(I0
g129
tp140
a(I1
g127
tp141
a(I2
g129
tp142
a(I3
g127
tp143
a(I0
g129
tp144
a(I1
g127
tp145
a(I2
g129
tp146
a(I3
g127
tp147
a(I0
g129
tp148
a(I1
g127
tp149
a(I2
g129
tp150
a(I3
g127
tp151
a(I0
g129
tp152
a(I1
g127
tp153
a(I2
g129
tp154
a(I3
g127
tp155
a(I0
g129
tp156
a(I1
g127
tp157
a(I2
g129
tp158
a(I3
g127
tp159
a(I0
g129
tp160
a(I1
g127
tp161
a(I2
g129
tp162
a(I3
g127
tp163
a(I0
g129
tp164
a(I1
g127
tp165
a(I2
g129
tp166
a(I3
g127
tp167
a(I0
g129
tp168
a(I1
g127
tp169
a(I2
g129
tp170
a(I3
g127
tp171
a(I0
g129
tp172
a(I1
g127
tp173
a(I2
g129
tp174
a(I3
g127
tp175
a(I0
g129
tp176
a(I1
g127
tp177
a(I2
g129
tp178
a(I3
g127
tp179
a(I0
g129
tp180
a(I1
g127
tp181
a(I2
g129
tp182
a(I3
g127
tp183
a(I0
g129
tp184
a(I1
S'West'
p185
tp186
a(I2
g129
tp187
a(I3
g127
tp188
a(I0
S'East'
p189
tp190
a(I1
g185
tp191
a(I2
g189
tp192
a(I3
g185
tp193
a(I0
g189
tp194
a(I1
g185
tp195
a(I2
g189
tp196
a(I3
g185
tp197
a(I0
g189
tp198
a(I1
g185
tp199
a(I2
g185
tp200
a(I3
g185
tp201
a(I0
g189
tp202
a(I1
g185
tp203
a(I2
g185
tp204
a(I3
g185
tp205
a(I0
g189
tp206
a(I1
g185
tp207
a(I2
g189
tp208
a(I3
g185
tp209
a(I0
g189
tp210
a(I1
g185
tp211
a(I2
S'Stop'
p212
tp213
a(I3
g185
tp214
a(I0
g189
tp215
a(I1
g185
tp216
a(I2
g212
tp217
a(I3
g185
tp218
a(I0
g189
tp219
a(I1
g129
tp220
a(I2
g212
tp221
a(I3
g185
tp222
a(I0
g127
tp223
a(I1
g129
tp224
a(I2
g212
tp225
a(I3
g129
tp226
a(I0
g127
tp227
a(I1
g129
tp228
a(I2
g212
tp229
a(I3
g129
tp230
a(I0
g189
tp231
a(I1
g185
tp232
a(I2
g185
tp233
a(I3
g129
tp234
a(I0
g127
tp235
a(I1
g129
tp236
a(I2
g189
tp237
a(I3
g185
tp238
a(I0
g127
tp239
a(I1
g129
tp240
a(I2
g212
tp241
a(I3
g129
tp242
a(I0
g127
tp243
a(I1
g185
tp244
a(I2
g185
tp245
a(I3
g129
tp246
a(I0
g189
tp247
a(I1
g129
tp248
a(I2
g189
tp249
a(I3
g189
tp250
a(I0
g127
tp251
a(I1
g129
tp252
a(I2
g189
tp253
a(I3
g189
tp254
a(I0
g127
tp255
a(I1
g185
tp256
a(I2
g189
tp257
a(I3
g129
tp258
a(I0
g189
tp259
a(I1
g185
tp260
a(I2
g189
tp261
a(I3
g185
tp262
a(I0
g189
tp263
a(I1
g127
tp264
a(I2
g189
tp265
a(I3
g127
tp266
a(I0
g129
tp267
a(I1
g185
tp268
a(I2
g189
tp269
a(I3
g189
tp270
a(I0
g189
tp271
a(I1
g185
tp272
a(I2
g189
tp273
a(I3
g129
tp274
a(I0
g189
tp275
a(I1
g185
tp276
a(I2
g189
tp277
a(I3
g185
tp278
a(I0
g189
tp279
a(I1
g185
tp280
a(I2
g127
tp281
a(I3
g127
tp282
a(I0
g189
tp283
a(I1
g129
tp284
a(I2
g127
tp285
a(I3
g185
tp286
a(I0
g127
tp287
a(I1
g185
tp288
a(I2
g189
tp289
a(I3
g129
tp290
a(I0
g189
tp291
a(I1
g129
tp292
a(I2
g127
tp293
a(I3
g185
tp294
a(I0
g127
tp295
a(I1
g129
tp296
a(I2
g127
tp297
a(I3
g129
tp298
a(I0
g127
tp299
a(I1
g185
tp300
a(I2
g127
tp301
a(I3
g185
tp302
a(I0
g189
tp303
a(I1
g129
tp304
a(I2
g189
tp305
a(I3
g185
tp306
a(I0
g185
tp307
a(I1
g129
tp308
a(I2
g127
tp309
a(I3
g127
tp310
a(I0
g185
tp311
a(I1
g185
tp312
a(I2
g127
tp313
a(I3
g185
tp314
a(I0
g185
tp315
a(I1
g129
tp316
a(I2
g189
tp317
a(I3
g189
tp318
a(I0
g127
tp319
a(I1
g129
tp320
a(I2
g189
tp321
a(I3
g129
tp322
a(I0
g129
tp323
a(I1
g129
tp324
a(I2
g129
tp325
a(I3
g189
tp326
a(I0
g189
tp327
a(I1
g129
tp328
a(I2
g189
tp329
a(I3
g185
tp330
a(I0
g189
tp331
a(I1
g127
tp332
a(I2
g189
tp333
a(I3
g127
tp334
a(I0
g185
tp335
a(I1
g127
tp336
a(I2
g189
tp337
a(I3
g185
tp338
a(I0
g185
tp339
a(I1
g129
tp340
a(I2
g189
tp341
a(I3
g185
tp342
a(I0
g127
tp343
a(I1
g189
tp344
a(I2
g129
tp345
a(I3
g129
tp346
a(I0
g185
tp347
a(I1
g189
tp348
a(I2
g189
tp349
a(I3
g129
tp350
a(I0
g127
tp351
a(I1
g127
tp352
a(I2
g129
tp353
a(I3
g185
tp354
a(I0
g127
tp355
a(I1
g127
tp356
a(I2
g129
tp357
a(I3
g129
tp358
a(I0
g127
tp359
a(I1
g127
tp360
a(I2
g129
tp361
a(I3
g129
tp362
a(I0
g127
tp363
a(I1
g185
tp364
a(I2
g129
tp365
a(I3
g189
tp366
a(I0
g189
tp367
a(I1
g127
tp368
a(I2
g185
tp369
a(I3
g129
tp370
a(I0
g189
tp371
a(I1
g127
tp372
a(I2
g185
tp373
a(I3
g127
tp374
a(I0
g189
tp375
a(I1
g185
tp376
a(I2
g189
tp377
a(I3
g129
tp378
a(I0
g189
tp379
a(I1
g127
tp380
a(I2
g189
tp381
a(I3
g129
tp382
a(I0
g189
tp383
a(I1
g185
tp384
a(I2
g185
tp385
a(I3
g129
tp386
a(I0
g127
tp387
a(I1
g185
tp388
a(I2
g185
tp389
a(I3
g129
tp390
a(I0
g129
tp391
a(I1
g129
tp392
a(I2
g185
tp393
a(I3
g129
tp394
a(I0
g129
tp395
a(I1
g185
tp396
a(I2
g127
tp397
a(I3
g189
tp398
a(I0
g129
tp399
a(I1
g185
tp400
a(I2
g189
tp401
a(I3
g189
tp402
a(I0
g129
tp403
a(I1
g185
tp404
a(I2
g129
tp405
a(I3
g127
tp406
a(I0
g185
tp407
a(I1
g129
tp408
a(I2
g189
tp409
a(I3
g129
tp410
a(I0
g129
tp411
a(I1
g189
tp412
a(I2
g185
tp413
a(I3
g127
tp414
a(I0
g129
tp415
a(I1
g185
tp416
a(I2
g212
tp417
a(I3
g127
tp418
a(I0
g189
tp419
a(I1
g189
tp420
a(I2
g127
tp421
a(I3
g127
tp422
a(I0
g129
tp423
a(I1
g185
tp424
a(I2
g129
tp425
a(I3
g127
tp426
a(I0
g129
tp427
a(I1
g189
tp428
a(I2
g189
tp429
a(I3
g127
tp430
a(I0
g127
tp431
a(I1
g189
tp432
a(I2
g189
tp433
a(I3
g127
tp434
a(I0
g127
tp435
a(I1
g129
tp436
a(I2
g129
tp437
a(I3
g127
tp438
a(I0
g185
tp439
a(I1
g127
tp440
a(I2
g185
tp441
a(I3
g127
tp442
a(I0
g185
tp443
a(I1
g127
tp444
a(I2
g189
tp445
a(I3
g127
tp446
a(I0
g185
tp447
a(I1
g185
tp448
a(I2
g189
tp449
a(I3
g185
tp450
a(I0
g185
tp451
a(I1
g185
tp452
a(I2
g189
tp453
a(I3
g189
tp454
a(I0
g212
tp455
a(I1
g129
tp456
a(I2
g127
tp457
a(I3
g129
tp458
a(I0
g189
tp459
a(I1
g189
tp460
a(I2
g189
tp461
a(I3
g127
tp462
a(I0
g185
tp463
a(I1
g185
tp464
a(I2
g189
tp465
a(I3
g129
tp466
a(I0
g189
tp467
a(I1
g127
tp468
a(I2
g127
tp469
a(I3
g127
tp470
a(I0
g189
tp471
a(I1
g189
tp472
a(I2
g127
tp473
a(I3
g185
tp474
a(I0
g185
tp475
a(I1
g127
tp476
a(I2
g129
tp477
a(I3
g185
tp478
a(I0
g185
tp479
a(I1
g127
tp480
a(I2
g129
tp481
a(I3
g189
tp482
a(I0
g129
tp483
a(I1
g185
tp484
a(I2
g129
tp485
a(I3
g189
tp486
a(I0
g185
tp487
a(I1
g185
tp488
a(I2
g189
tp489
a(I3
g129
tp490
a(I0
g129
tp491
a(I1
g185
tp492
a(I2
g189
tp493
a(I3
g189
tp494
a(I0
g127
tp495
a(I1
g185
tp496
a(I2
g127
tp497
a(I3
g189
tp498
a(I0
g189
tp499
a(I1
g127
tp500
a(I2
g189
tp501
a(I3
g127
tp502
a(I0
g127
tp503
a(I1
g127
tp504
a(I2
g189
tp505
a(I3
g127
tp506
a(I0
g189
tp507
a(I1
g129
tp508
a(I2
g129
tp509
a(I3
g189
tp510
a(I0
g189
tp511
a(I1
g129
tp512
a(I2
g127
tp513
a(I3
g189
tp514
a(I0
g189
tp515
a(I1
g189
tp516
a(I2
g185
tp517
a(I3
g189
tp518
a(I0
g189
tp519
a(I1
g189
tp520
a(I2
g185
tp521
a(I3
g129
tp522
a(I0
g129
tp523
a(I1
g189
tp524
a(I2
g127
tp525
a(I3
g185
tp526
a(I0
g129
tp527
a(I1
g127
tp528
a(I2
g127
tp529
a(I3
g127
tp530
a(I0
g129
tp531
a(I1
g127
tp532
a(I2
g189
tp533
a(I3
g189
tp534
a(I0
g189
tp535
a(I1
g185
tp536
a(I2
g189
tp537
a(I3
g129
tp538
a(I0
g189
tp539
a(I1
g189
tp540
a(I2
g185
tp541
a(I3
g185
tp542
a(I0
g189
tp543
a(I1
g127
tp544
a(I2
g127
tp545
a(I3
g129
tp546
a(I0
g127
tp547
a(I1
g127
tp548
a(I2
g127
tp549
a(I3
g129
tp550
a(I0
g185
tp551
a(I1
g185
tp552
a(I2
g189
tp553
a(I3
g185
tp554
a(I0
g127
tp555
a(I1
g189
tp556
a(I2
g185
tp557
a(I3
g185
tp558
a(I0
g185
tp559
a(I1
g189
tp560
a(I2
g127
tp561
a(I3
g127
tp562
a(I0
g185
tp563
a(I1
g127
tp564
a(I2
g127
tp565
a(I3
g127
tp566
a(I0
g189
tp567
a(I1
g127
tp568
a(I2
g189
tp569
a(I3
g189
tp570
a(I0
g189
tp571
a(I1
g185
tp572
a(I2
g189
tp573
a(I3
g127
tp574
a(I0
g127
tp575
a(I1
g185
tp576
a(I2
g189
tp577
a(I3
g127
tp578
a(I0
g189
tp579
a(I1
g127
tp580
a(I2
g129
tp581
a(I3
g127
tp582
a(I0
g189
tp583
a(I1
g129
tp584
a(I2
g129
tp585
a(I3
g127
tp586
a(I0
g189
tp587
a(I1
g189
tp588
a(I2
g129
tp589
a(I3
g189
tp590
a(I0
g185
tp591
a(I1
g189
tp592
a(I2
g129
tp593
a(I3
g189
tp594
a(I0
g185
tp595
a(I1
g127
tp596
a(I2
g129
tp597
a(I3
g129
tp598
a(I0
g127
tp599
a(I1
g189
tp600
a(I2
g129
tp601
a(I3
g127
tp602
a(I0
g127
tp603
a(I1
g189
tp604
a(I2
g189
tp605
a(I3
g189
tp606
a(I0
g127
tp607
a(I1
g129
tp608
a(I2
g189
tp609
a(I3
g189
tp610
a(I0
g189
tp611
a(I1
g189
tp612
a(I2
g127
tp613
a(I3
g189
tp614
a(I0
g127
tp615
a(I1
g189
tp616
a(I2
g127
tp617
a(I3
g185
tp618
a(I0
g127
tp619
a(I1
g127
tp620
a(I2
g127
tp621
a(I3
g129
tp622
a(I0
g127
tp623
a(I1
g189
tp624
a(I2
g127
tp625
a(I3
g127
tp626
a(I0
g185
tp627
a(I1
g189
tp628
a(I2
g127
tp629
a(I3
g189
tp630
a(I0
g185
tp631
a(I1
g189
tp632
a(I2
g127
tp633
a(I3
g185
tp634
a(I0
g189
tp635
a(I1
g189
tp636
a(I2
g127
tp637
a(I3
g185
tp638
a(I0
g189
tp639
a(I1
g185
tp640
a(I2
g127
tp641
a(I3
g189
tp642
a(I0
g129
tp643
a(I1
g185
tp644
a(I2
g127
tp645
a(I3
g129
tp646
a(I0
g129
tp647
a(I1
g185
tp648
a(I2
g127
tp649
a(I3
g129
tp650
a(I0
g189
tp651
a(I1
g185
tp652
a(I2
g127
tp653
a(I3
g129
tp654
a(I0
g189
tp655
a(I1
g129
tp656
a(I2
g127
tp657
a(I3
g129
tp658
a(I0
g189
tp659
a(I1
g185
tp660
a(I2
g129
tp661
a(I3
g189
tp662
a(I0
g189
tp663
a(I1
g185
tp664
a(I2
g129
tp665
a(I3
g185
tp666
a(I0
g185
tp667
a(I1
g129
tp668
a(I2
g129
tp669
a(I3
g189
tp670
a(I0
g129
tp671
a(I1
g129
tp672
a(I2
g129
tp673
a(I3
g185
tp674
a(I0
g129
tp675
a(I1
g127
tp676
a(I2
g129
tp677
a(I3
g189
tp678
a(I0
g189
tp679
a(I1
g127
tp680
a(I2
g129
tp681
a(I3
g185
tp682
a(I0
g185
tp683
a(I1
g189
tp684
a(I2
g129
tp685
a(I3
g189
tp686
a(I0
g127
tp687
a(I1
g189
tp688
a(I2
g129
tp689
a(I3
g185
tp690
a(I0
g127
tp691
a(I1
g129
tp692
a(I2
g129
tp693
a(I3
g189
tp694
a(I0
g185
tp695
a(I1
g129
tp696
a(I2
g129
tp697
a(I3
g185
tp698
a(I0
g185
tp699
a(I1
g129
tp700
a(I2
g129
tp701
a(I3
g127
tp702
a(I0
g185
tp703
a(I1
g129
tp704
a(I2
g129
tp705
a(I3
g129
tp706
a(I0
g185
tp707
a(I1
g129
tp708
a(I2
g185
tp709
a(I3
g189
tp710
a(I0
g129
tp711
a(I1
g185
tp712
a(I2
g185
tp713
a(I3
g185
tp714
a(I0
g129
tp715
a(I1
g185
tp716
a(I2
g127
tp717
a(I3
g127
tp718
a(I0
g129
tp719
a(I1
g129
tp720
a(I2
g127
tp721
a(I3
g127
tp722
a(I0
g185
tp723
a(I1
g129
tp724
a(I2
g127
tp725
a(I3
g129
tp726
a(I0
g129
tp727
a(I1
g129
tp728
a(I2
g127
tp729
a(I3
g129
tp730
a(I0
g129
tp731
a(I1
g129
tp732
a(I2
g127
tp733
a(I3
g127
tp734
a(I0
g185
tp735
a(I1
g185
tp736
a(I2
g127
tp737
a(I3
g127
tp738
a(I0
g185
tp739
a(I1
g129
tp740
a(I2
g185
tp741
a(I3
g127
tp742
a(I0
g127
tp743
a(I1
g129
tp744
a(I2
g185
tp745
a(I3
g129
tp746
a(I0
g185
tp747
a(I1
g129
tp748
a(I2
g185
tp749
a(I3
g129
tp750
a(I0
g185
tp751
a(I1
g185
tp752
a(I2
g185
tp753
a(I3
g129
tp754
a(I0
g185
tp755
a(I1
g129
tp756
a(I2
g185
tp757
a(I3
g189
tp758
a(I0
g185
tp759
a(I1
g129
tp760
a(I2
g185
tp761
a(I3
g185
tp762
a(I0
g189
tp763
a(I1
g189
tp764
a(I2
g127
tp765
a(I3
g127
tp766
a(I0
g185
tp767
a(I1
g189
tp768
a(I2
g185
tp769
a(I3
g129
tp770
a(I0
g189
tp771
a(I1
g185
tp772
a(I2
g185
tp773
a(I3
g189
tp774
a(I0
g185
tp775
a(I1
g185
tp776
a(I2
g127
tp777
a(I3
g185
tp778
a(I0
g212
tp779
a(I1
g127
tp780
a(I2
g185
tp781
a(I3
g127
tp782
a(I0
g129
tp783
a(I1
g127
tp784
a(I2
g185
tp785
a(I3
g127
tp786
a(I0
g185
tp787
a(I1
g185
tp788
a(I2
g185
tp789
a(I3
g129
tp790
a(I0
g129
tp791
a(I1
g185
tp792
a(I2
g185
tp793
asS'length'
p794
I1200
sS'agents'
p795
(lp796
(igame
Agent
p797
(dp798
S'index'
p799
I0
sba(igame
Agent
p800
(dp801
g799
I0
sba(igame
Agent
p802
(dp803
g799
I0
sba(igame
Agent
p804
(dp805
g799
I0
sbasS'redTeamName'
p806
S'Red'
p807
s.