(dp1
S'layout'
p2
(ilayout
Layout
p3
(dp4
S'capsules'
p5
(lp6
(I8
I8
tp7
a(I24
I8
tp8
a(I9
I9
tp9
a(I25
I9
tp10
asS'numGhosts'
p11
I4
sS'food'
p12
(igame
Grid
p13
(dp14
S'CELLS_PER_INT'
p15
I30
sS'width'
p16
I34
sS'data'
p17
(lp18
(lp19
I00
aI00
aI00
aI00
aI00
aI00
aI00
aI00
aI00
aI00
aI00
aI00
aI00
aI00
aI00
aI00
aI00
aI00
aa(lp20
I00
aI00
aI00
aI00
aI00
aI00
aI00
aI00
aI00
aI00
aI00
aI00
aI00
aI00
aI00
aI00
aI00
aI00
aa(lp21
I00
aI00
aI00
aI00
aI00
aI00
aI00
aI00
aI00
aI00
aI00
aI00
aI00
aI00
aI00
aI00
aI00
aI00
aa(lp22
I00
aI00
aI00
aI00
aI00
aI00
aI01
aI00
aI00
aI00
aI01
aI00
aI00
aI01
aI01
aI00
aI00
aI00
aa(lp23
I00
aI00
aI00
aI00
aI00
aI00
aI00
aI00
aI00
aI00
aI00
aI00
aI00
aI00
aI00
aI00
aI00
aI00
aa(lp24
I00
aI00
aI00
aI00
aI00
aI00
aI01
aI00
aI01
aI00
aI01
aI00
aI01
aI00
aI01
aI00
aI00
aI00
aa(lp25
I00
aI00
aI00
aI00
aI00
aI00
aI00
aI00
aI00
aI00
aI01
aI00
aI00
aI01
aI00
aI00
aI00
aI00
aa(lp26
I00
aI01
aI01
aI00
aI01
aI00
aI01
aI00
aI01
aI00
aI00
aI00
aI00
aI00
aI00
aI00
aI00
aI00
aa(lp27
I00
aI00
aI00
aI00
aI00
aI00
aI00
aI00
aI00
aI00
aI01
aI00
aI00
aI00
aI00
aI00
aI00
aI00
aa(lp28
I00
aI00
aI00
aI00
aI00
aI00
aI00
aI00
aI00
aI00
aI01
aI00
aI00
aI00
aI01
aI01
aI00
aI00
aa(lp29
I00
aI00
aI00
aI00
aI00
aI00
aI00
aI00
aI00
aI00
aI00
aI00
aI01
aI00
aI00
aI00
aI01
aI00
aa(lp30
I00
aI00
aI00
aI01
aI01
aI00
aI00
aI00
aI00
aI00
aI00
aI00
aI00
aI00
aI00
aI00
aI01
aI00
aa(lp31
I00
aI00
aI01
aI00
aI00
aI00
aI00
aI01
aI00
aI00
aI00
aI00
aI00
aI00
aI00
aI00
aI00
aI00
aa(lp32
I00
aI00
aI00
aI00
aI00
aI00
aI00
aI00
aI00
aI00
aI00
aI00
aI01
aI00
aI00
aI00
aI01
aI00
aa(lp33
I00
aI00
aI00
aI00
aI00
aI00
aI00
aI00
aI00
aI00
aI01
aI00
aI00
aI00
aI00
aI00
aI00
aI00
aa(lp34
I00
aI00
aI00
aI00
aI00
aI00
aI00
aI00
aI00
aI00
aI00
aI00
aI00
aI00
aI00
aI00
aI00
aI00
aa(lp35
I00
aI00
aI00
aI00
aI00
aI00
aI00
aI00
aI00
aI00
aI00
aI00
aI00
aI00
aI00
aI00
aI00
aI00
aa(lp36
I00
aI00
aI00
aI00
aI00
aI00
aI00
aI00
aI00
aI00
aI00
aI00
aI00
aI00
aI00
aI00
aI00
aI00
aa(lp37
I00
aI00
aI00
aI00
aI00
aI00
aI00
aI00
aI00
aI00
aI00
aI00
aI00
aI00
aI00
aI00
aI00
aI00
aa(lp38
I00
aI00
aI00
aI00
aI00
aI00
aI00
aI01
aI00
aI00
aI00
aI00
aI00
aI00
aI00
aI00
aI00
aI00
aa(lp39
I00
aI01
aI00
aI00
aI00
aI01
aI00
aI00
aI00
aI00
aI00
aI00
aI00
aI00
aI00
aI00
aI00
aI00
aa(lp40
I00
aI00
aI00
aI00
aI00
aI00
aI00
aI00
aI00
aI00
aI01
aI00
aI00
aI00
aI00
aI01
aI00
aI00
aa(lp41
I00
aI01
aI00
aI00
aI00
aI00
aI00
aI00
aI00
aI00
aI00
aI00
aI00
aI01
aI01
aI00
aI00
aI00
aa(lp42
I00
aI01
aI00
aI00
aI00
aI01
aI00
aI00
aI00
aI00
aI00
aI00
aI00
aI00
aI00
aI00
aI00
aI00
aa(lp43
I00
aI00
aI01
aI01
aI00
aI00
aI00
aI01
aI00
aI00
aI00
aI00
aI00
aI00
aI00
aI00
aI00
aI00
aa(lp44
I00
aI00
aI00
aI00
aI00
aI00
aI00
aI01
aI00
aI00
aI00
aI00
aI00
aI00
aI00
aI00
aI00
aI00
aa(lp45
I00
aI00
aI00
aI00
aI00
aI00
aI00
aI00
aI00
aI01
aI00
aI01
aI00
aI01
aI00
aI01
aI01
aI00
aa(lp46
I00
aI00
aI00
aI00
aI01
aI00
aI00
aI01
aI00
aI00
aI00
aI00
aI00
aI00
aI00
aI00
aI00
aI00
aa(lp47
I00
aI00
aI00
aI01
aI00
aI01
aI00
aI01
aI00
aI01
aI00
aI01
aI00
aI00
aI00
aI00
aI00
aI00
aa(lp48
I00
aI00
aI00
aI00
aI00
aI00
aI00
aI00
aI00
aI00
aI00
aI00
aI00
aI00
aI00
aI00
aI00
aI00
aa(lp49
I00
aI00
aI00
aI01
aI01
aI00
aI00
aI01
aI00
aI00
aI00
aI01
aI00
aI00
aI00
aI00
aI00
aI00
aa(lp50
I00
aI00
aI00
aI00
aI00
aI00
aI00
aI00
aI00
aI00
aI00
aI00
aI00
aI00
aI00
aI00
aI00
aI00
aa(lp51
I00
aI00
aI00
aI00
aI00
aI00
aI00
aI00
aI00
aI00
aI00
aI00
aI00
aI00
aI00
aI00
aI00
aI00
aa(lp52
I00
aI00
aI00
aI00
aI00
aI00
aI00
aI00
aI00
aI00
aI00
aI00
aI00
aI00
aI00
aI00
aI00
aI00
aasS'height'
p53
I18
sbsS'agentPositions'
p54
(lp55
(I00
(I1
I2
tp56
tp57
a(I00
(I32
I15
tp58
tp59
a(I00
(I1
I1
tp60
tp61
a(I00
(I32
I16
tp62
tp63
asg53
I18
sg16
I34
sS'walls'
p64
(igame
Grid
p65
(dp66
g15
I30
sg16
I34
sg17
(lp67
(lp68
I01
aI01
aI01
aI01
aI01
aI01
aI01
aI01
aI01
aI01
aI01
aI01
aI01
aI01
aI01
aI01
aI01
aI01
aa(lp69
I01
aI00
aI00
aI00
aI00
aI00
aI00
aI00
aI00
aI00
aI00
aI00
aI00
aI00
aI00
aI00
aI00
aI01
aa(lp70
I01
aI01
aI01
aI01
aI01
aI01
aI01
aI01
aI01
aI01
aI01
aI01
aI01
aI01
aI01
aI01
aI00
aI01
aa(lp71
I01
aI00
aI00
aI00
aI00
aI00
aI00
aI00
aI00
aI00
aI00
aI00
aI00
aI00
aI00
aI01
aI00
aI01
aa(lp72
I01
aI01
aI00
aI01
aI01
aI01
aI01
aI01
aI01
aI01
aI01
aI01
aI01
aI01
aI01
aI01
aI00
aI01
aa(lp73
I01
aI00
aI00
aI00
aI00
aI00
aI00
aI00
aI00
aI01
aI00
aI01
aI00
aI01
aI00
aI01
aI00
aI01
aa(lp74
I01
aI01
aI01
aI01
aI01
aI01
aI01
aI01
aI00
aI01
aI00
aI00
aI00
aI00
aI00
aI01
aI00
aI01
aa(lp75
I01
aI00
aI00
aI01
aI00
aI01
aI00
aI01
aI00
aI01
aI01
aI01
aI01
aI01
aI00
aI01
aI00
aI01
aa(lp76
I01
aI01
aI00
aI01
aI00
aI00
aI00
aI00
aI00
aI01
aI00
aI00
aI01
aI00
aI00
aI01
aI00
aI01
aa(lp77
I01
aI00
aI00
aI00
aI00
aI01
aI00
aI01
aI00
aI00
aI00
aI00
aI01
aI00
aI00
aI00
aI00
aI01
aa(lp78
I01
aI00
aI01
aI01
aI01
aI01
aI00
aI00
aI00
aI01
aI00
aI00
aI00
aI00
aI00
aI01
aI00
aI01
aa(lp79
I01
aI00
aI00
aI00
aI00
aI01
aI00
aI00
aI00
aI00
aI00
aI00
aI01
aI00
aI00
aI01
aI00
aI01
aa(lp80
I01
aI01
aI00
aI01
aI01
aI01
aI01
aI00
aI01
aI00
aI01
aI01
aI01
aI01
aI01
aI01
aI01
aI01
aa(lp81
I01
aI00
aI00
aI00
aI00
aI00
aI00
aI00
aI00
aI00
aI00
aI01
aI00
aI00
aI00
aI00
aI00
aI01
aa(lp82
I01
aI00
aI01
aI01
aI01
aI01
aI01
aI01
aI01
aI01
aI00
aI00
aI00
aI01
aI01
aI00
aI01
aI01
aa(lp83
I01
aI00
aI00
aI00
aI00
aI00
aI00
aI01
aI00
aI00
aI00
aI01
aI00
aI00
aI00
aI00
aI00
aI01
aa(lp84
I01
aI00
aI00
aI01
aI00
aI01
aI00
aI00
aI00
aI01
aI00
aI01
aI00
aI01
aI00
aI00
aI00
aI01
aa(lp85
I01
aI00
aI00
aI00
aI01
aI00
aI01
aI00
aI01
aI00
aI00
aI00
aI01
aI00
aI01
aI00
aI00
aI01
aa(lp86
I01
aI00
aI00
aI00
aI00
aI00
aI01
aI00
aI00
aI00
aI01
aI00
aI00
aI00
aI00
aI00
aI00
aI01
aa(lp87
I01
aI01
aI00
aI01
aI01
aI00
aI00
aI00
aI01
aI01
aI01
aI01
aI01
aI01
aI01
aI01
aI00
aI01
aa(lp88
I01
aI00
aI00
aI00
aI00
aI00
aI01
aI00
aI00
aI00
aI00
aI00
aI00
aI00
aI00
aI00
aI00
aI01
aa(lp89
I01
aI01
aI01
aI01
aI01
aI01
aI01
aI01
aI00
aI01
aI00
aI01
aI01
aI01
aI01
aI00
aI01
aI01
aa(lp90
I01
aI00
aI01
aI00
aI00
aI01
aI00
aI00
aI00
aI00
aI00
aI00
aI01
aI00
aI00
aI00
aI00
aI01
aa(lp91
I01
aI00
aI01
aI00
aI00
aI00
aI00
aI00
aI01
aI00
aI00
aI00
aI01
aI01
aI01
aI01
aI00
aI01
aa(lp92
I01
aI00
aI00
aI00
aI00
aI01
aI00
aI00
aI00
aI00
aI01
aI00
aI01
aI00
aI00
aI00
aI00
aI01
aa(lp93
I01
aI00
aI01
aI00
aI00
aI01
aI00
aI00
aI01
aI00
aI00
aI00
aI00
aI00
aI01
aI00
aI01
aI01
aa(lp94
I01
aI00
aI01
aI00
aI01
aI01
aI01
aI01
aI01
aI00
aI01
aI00
aI01
aI00
aI01
aI00
aI00
aI01
aa(lp95
I01
aI00
aI01
aI00
aI00
aI00
aI00
aI00
aI01
aI00
aI01
aI01
aI01
aI01
aI01
aI01
aI01
aI01
aa(lp96
I01
aI00
aI01
aI00
aI01
aI00
aI01
aI00
aI01
aI00
aI00
aI00
aI00
aI00
aI00
aI00
aI00
aI01
aa(lp97
I01
aI00
aI01
aI01
aI01
aI01
aI01
aI01
aI01
aI01
aI01
aI01
aI01
aI01
aI01
aI00
aI01
aI01
aa(lp98
I01
aI00
aI01
aI00
aI00
aI00
aI00
aI00
aI00
aI00
aI00
aI00
aI00
aI00
aI00
aI00
aI00
aI01
aa(lp99
I01
aI00
aI01
aI01
aI01
aI01
aI01
aI01
aI01
aI01
aI01
aI01
aI01
aI01
aI01
aI01
aI01
aI01
aa(lp100
I01
aI00
aI00
aI00
aI00
aI00
aI00
aI00
aI00
aI00
aI00
aI00
aI00
aI00
aI00
aI00
aI00
aI01
aa(lp101
I01
aI01
aI01
aI01
aI01
aI01
aI01
aI01
aI01
aI01
aI01
aI01
aI01
aI01
aI01
aI01
aI01
aI01
aasg53
I18
sbsS'totalFood'
p102
I60
sS'layoutText'
p103
(lp104
S'%%%%%%%%%%%%%%%%%%%%%%%%%%%%%%%%%%'
p105
aS'%         ..%.%      %   %.% % %4%'
p106
aS'% %%%%%%%.%%%      % . %  .%   %2%'
p107
aS'% %.%.   .  % %  % % %.% %%% % % %'
p108
aS'% %.%%.%    % % %  % %.%  .% % % %'
p109
aS'% % %. %%%.%%.   % % %%%% %% % % %'
p110
aS'% % %% %    %% %%  % %    .%.%.% %'
p111
aS'% %.%..%..  % .   %% .  % %% % % %'
p112
aS'% % %%%%%o%   % %  % %   o. .% % %'
p113
aS'% % %. .o   % %  % %   %o%%%%% % %'
p114
aS'% % % %% %  . %%   . %  ..%..%.% %'
p115
aS'% %.%.%.    % %  %% %%    % %% % %'
p116
aS'% % % %% %%%% % %   .%%.%%% .% % %'
p117
aS'% % % %.  %.% %  % % %    %.%%.% %'
p118
aS'% % % %%% %.% % %  % %  .   .%.% %'
p119
aS'%1%   %.  % . %      %%%.%%%%%%% %'
p120
aS'%3% % %.%   %      %.%..         %'
p121
aS'%%%%%%%%%%%%%%%%%%%%%%%%%%%%%%%%%%'
p122
asbsS'blueTeamName'
p123
S'Blue'
p124
sS'actions'
p125
(lp126
(I1
S'South'
p127
tp128
a(I2
S'North'
p129
tp130
a(I3
g127
tp131
a(I0
g129
tp132
a(I1
g127
tp133
a(I2
g129
tp134
a(I3
g127
tp135
a(I0
g129
tp136
a(I1
g127
tp137
a(I2
g129
tp138
a(I3
g127
tp139
a(I0
g129
tp140
a(I1
g127
tp141
a(I2
g129
tp142
a(I3
g127
tp143
a(I0
g129
tp144
a(I1
g127
tp145
a(I2
g129
tp146
a(I3
g127
tp147
a(I0
g129
tp148
a(I1
g127
tp149
a(I2
g129
tp150
a(I3
g127
tp151
a(I0
g129
tp152
a(I1
g127
tp153
a(I2
g129
tp154
a(I3
g127
tp155
a(I0
g129
tp156
a(I1
g127
tp157
a(I2
g129
tp158
a(I3
g127
tp159
a(I0
g129
tp160
a(I1
g127
tp161
a(I2
g129
tp162
a(I3
g127
tp163
a(I0
g129
tp164
a(I1
g127
tp165
a(I2
g129
tp166
a(I3
g127
tp167
a(I0
g129
tp168
a(I1
g127
tp169
a(I2
g129
tp170
a(I3
g127
tp171
a(I0
g129
tp172
a(I1
g127
tp173
a(I2
g129
tp174
a(I3
g127
tp175
a(I0
g129
tp176
a(I1
g127
tp177
a(I2
g129
tp178
a(I3
g127
tp179
a(I0
g129
tp180
a(I1
g127
tp181
a(I2
g129
tp182
a(I3
g127
tp183
a(I0
g129
tp184
a(I1
S'West'
p185
tp186
a(I2
g129
tp187
a(I3
g127
tp188
a(I0
S'East'
p189
tp190
a(I1
g185
tp191
a(I2
g189
tp192
a(I3
g185
tp193
a(I0
g189
tp194
a(I1
g185
tp195
a(I2
g189
tp196
a(I3
g185
tp197
a(I0
g189
tp198
a(I1
g185
tp199
a(I2
g189
tp200
a(I3
g185
tp201
a(I0
g189
tp202
a(I1
g185
tp203
a(I2
g189
tp204
a(I3
g185
tp205
a(I0
g189
tp206
a(I1
g185
tp207
a(I2
g189
tp208
a(I3
g185
tp209
a(I0
g189
tp210
a(I1
g185
tp211
a(I2
g189
tp212
a(I3
g185
tp213
a(I0
g189
tp214
a(I1
g185
tp215
a(I2
g189
tp216
a(I3
g185
tp217
a(I0
g189
tp218
a(I1
g129
tp219
a(I2
g189
tp220
a(I3
g185
tp221
a(I0
g127
tp222
a(I1
g129
tp223
a(I2
g127
tp224
a(I3
g129
tp225
a(I0
g127
tp226
a(I1
g129
tp227
a(I2
g127
tp228
a(I3
g129
tp229
a(I0
g127
tp230
a(I1
g185
tp231
a(I2
g127
tp232
a(I3
g129
tp233
a(I0
g189
tp234
a(I1
g129
tp235
a(I2
g189
tp236
a(I3
g185
tp237
a(I0
g127
tp238
a(I1
g129
tp239
a(I2
g127
tp240
a(I3
g129
tp241
a(I0
g127
tp242
a(I1
g185
tp243
a(I2
g127
tp244
a(I3
g129
tp245
a(I0
g127
tp246
a(I1
g129
tp247
a(I2
g127
tp248
a(I3
g189
tp249
a(I0
g189
tp250
a(I1
g129
tp251
a(I2
g189
tp252
a(I3
g129
tp253
a(I0
g127
tp254
a(I1
g185
tp255
a(I2
g127
tp256
a(I3
g189
tp257
a(I0
g189
tp258
a(I1
g185
tp259
a(I2
g189
tp260
a(I3
g127
tp261
a(I0
g189
tp262
a(I1
g127
tp263
a(I2
g189
tp264
a(I3
g185
tp265
a(I0
g129
tp266
a(I1
g185
tp267
a(I2
g129
tp268
a(I3
g129
tp269
a(I0
g189
tp270
a(I1
g185
tp271
a(I2
g189
tp272
a(I3
g127
tp273
a(I0
g189
tp274
a(I1
g129
tp275
a(I2
g189
tp276
a(I3
g189
tp277
a(I0
g127
tp278
a(I1
g127
tp279
a(I2
g189
tp280
a(I3
g129
tp281
a(I0
g127
tp282
a(I1
g189
tp283
a(I2
g185
tp284
a(I3
g185
tp285
a(I0
g189
tp286
a(I1
g189
tp287
a(I2
g189
tp288
a(I3
g127
tp289
a(I0
g127
tp290
a(I1
g129
tp291
a(I2
g185
tp292
a(I3
g185
tp293
a(I0
g189
tp294
a(I1
g127
tp295
a(I2
g189
tp296
a(I3
g185
tp297
a(I0
g189
tp298
a(I1
g185
tp299
a(I2
g185
tp300
a(I3
g129
tp301
a(I0
g189
tp302
a(I1
g185
tp303
a(I2
g189
tp304
a(I3
g189
tp305
a(I0
g129
tp306
a(I1
g185
tp307
a(I2
g185
tp308
a(I3
g127
tp309
a(I0
g129
tp310
a(I1
g189
tp311
a(I2
g189
tp312
a(I3
g189
tp313
a(I0
g129
tp314
a(I1
g185
tp315
a(I2
g185
tp316
a(I3
g189
tp317
a(I0
g129
tp318
a(I1
g189
tp319
a(I2
g189
tp320
a(I3
g185
tp321
a(I0
g129
tp322
a(I1
g185
tp323
a(I2
g185
tp324
a(I3
g129
tp325
a(I0
g129
tp326
a(I1
g189
tp327
a(I2
g189
tp328
a(I3
g127
tp329
a(I0
g129
tp330
a(I1
g185
tp331
a(I2
g185
tp332
a(I3
g189
tp333
a(I0
g129
tp334
a(I1
g189
tp335
a(I2
g189
tp336
a(I3
g185
tp337
a(I0
g129
tp338
a(I1
g185
tp339
a(I2
g185
tp340
a(I3
g185
tp341
a(I0
g129
tp342
a(I1
g189
tp343
a(I2
g189
tp344
a(I3
g189
tp345
a(I0
g129
tp346
a(I1
g185
tp347
a(I2
g185
tp348
a(I3
g189
tp349
a(I0
g129
tp350
a(I1
g189
tp351
a(I2
g189
tp352
a(I3
g129
tp353
a(I0
g129
tp354
a(I1
g185
tp355
a(I2
g185
tp356
a(I3
g185
tp357
a(I0
g129
tp358
a(I1
g189
tp359
a(I2
g189
tp360
a(I3
g127
tp361
a(I0
g189
tp362
a(I1
g185
tp363
a(I2
g185
tp364
a(I3
g189
tp365
a(I0
g189
tp366
a(I1
g189
tp367
a(I2
g189
tp368
a(I3
g185
tp369
a(I0
g189
tp370
a(I1
g185
tp371
a(I2
g185
tp372
a(I3
g129
tp373
a(I0
g189
tp374
a(I1
g189
tp375
a(I2
g189
tp376
a(I3
g127
tp377
a(I0
g189
tp378
a(I1
g185
tp379
a(I2
g185
tp380
a(I3
g189
tp381
a(I0
g189
tp382
a(I1
g189
tp383
a(I2
g189
tp384
a(I3
g129
tp385
a(I0
g189
tp386
a(I1
g185
tp387
a(I2
g185
tp388
a(I3
g185
tp389
a(I0
g189
tp390
a(I1
g189
tp391
a(I2
g189
tp392
a(I3
g127
tp393
a(I0
g127
tp394
a(I1
g185
tp395
a(I2
g185
tp396
a(I3
g185
tp397
a(I0
g127
tp398
a(I1
g189
tp399
a(I2
g189
tp400
a(I3
g129
tp401
a(I0
g127
tp402
a(I1
g185
tp403
a(I2
g185
tp404
a(I3
g189
tp405
a(I0
g189
tp406
a(I1
g189
tp407
a(I2
g189
tp408
a(I3
g127
tp409
a(I0
g127
tp410
a(I1
g185
tp411
a(I2
g185
tp412
a(I3
g189
tp413
a(I0
g127
tp414
a(I1
g189
tp415
a(I2
g189
tp416
a(I3
g185
tp417
a(I0
g127
tp418
a(I1
g185
tp419
a(I2
g185
tp420
a(I3
g185
tp421
a(I0
g189
tp422
a(I1
g189
tp423
a(I2
g189
tp424
a(I3
g189
tp425
a(I0
g127
tp426
a(I1
g185
tp427
a(I2
g185
tp428
a(I3
g129
tp429
a(I0
g189
tp430
a(I1
g189
tp431
a(I2
g189
tp432
a(I3
g127
tp433
a(I0
g189
tp434
a(I1
g185
tp435
a(I2
g185
tp436
a(I3
g185
tp437
a(I0
g129
tp438
a(I1
g189
tp439
a(I2
g189
tp440
a(I3
g129
tp441
a(I0
g189
tp442
a(I1
g185
tp443
a(I2
g185
tp444
a(I3
g189
tp445
a(I0
g189
tp446
a(I1
g189
tp447
a(I2
g189
tp448
a(I3
g127
tp449
a(I0
g127
tp450
a(I1
g189
tp451
a(I2
g185
tp452
a(I3
g189
tp453
a(I0
g127
tp454
a(I1
g127
tp455
a(I2
g189
tp456
a(I3
g129
tp457
a(I0
g189
tp458
a(I1
g127
tp459
a(I2
g185
tp460
a(I3
g185
tp461
a(I0
g127
tp462
a(I1
g185
tp463
a(I2
g189
tp464
a(I3
g127
tp465
a(I0
g189
tp466
a(I1
g127
tp467
a(I2
g185
tp468
a(I3
g185
tp469
a(I0
g189
tp470
a(I1
g127
tp471
a(I2
g189
tp472
a(I3
g185
tp473
a(I0
g189
tp474
a(I1
g127
tp475
a(I2
g185
tp476
a(I3
g129
tp477
a(I0
g189
tp478
a(I1
g127
tp479
a(I2
g189
tp480
a(I3
g129
tp481
a(I0
g129
tp482
a(I1
g185
tp483
a(I2
g185
tp484
a(I3
g185
tp485
a(I0
g129
tp486
a(I1
g185
tp487
a(I2
g189
tp488
a(I3
g185
tp489
a(I0
g129
tp490
a(I1
g185
tp491
a(I2
g185
tp492
a(I3
g129
tp493
a(I0
g189
tp494
a(I1
g185
tp495
a(I2
g189
tp496
a(I3
g129
tp497
a(I0
g189
tp498
a(I1
g185
tp499
a(I2
g185
tp500
a(I3
g189
tp501
a(I0
g129
tp502
a(I1
g129
tp503
a(I2
g189
tp504
a(I3
g189
tp505
a(I0
g189
tp506
a(I1
g185
tp507
a(I2
g185
tp508
a(I3
g189
tp509
a(I0
g189
tp510
a(I1
g185
tp511
a(I2
g185
tp512
a(I3
g129
tp513
a(I0
g189
tp514
a(I1
g129
tp515
a(I2
g185
tp516
a(I3
g189
tp517
a(I0
g127
tp518
a(I1
g129
tp519
a(I2
g127
tp520
a(I3
g189
tp521
a(I0
Ntp522
asS'length'
p523
I1200
sS'agents'
p524
(lp525
(igame
Agent
p526
(dp527
S'index'
p528
I0
sba(igame
Agent
p529
(dp530
g528
I0
sba(igame
Agent
p531
(dp532
g528
I0
sba(igame
Agent
p533
(dp534
g528
I0
sbasS'redTeamName'
p535
S'Red'
p536
s.