(dp1
S'layout'
p2
(ilayout
Layout
p3
(dp4
S'capsules'
p5
(lp6
(I8
I8
tp7
a(I24
I8
tp8
a(I9
I9
tp9
a(I25
I9
tp10
asS'numGhosts'
p11
I4
sS'food'
p12
(igame
Grid
p13
(dp14
S'CELLS_PER_INT'
p15
I30
sS'width'
p16
I34
sS'data'
p17
(lp18
(lp19
I00
aI00
aI00
aI00
aI00
aI00
aI00
aI00
aI00
aI00
aI00
aI00
aI00
aI00
aI00
aI00
aI00
aI00
aa(lp20
I00
aI00
aI00
aI00
aI00
aI00
aI00
aI00
aI00
aI00
aI00
aI00
aI00
aI00
aI00
aI00
aI00
aI00
aa(lp21
I00
aI00
aI00
aI00
aI00
aI00
aI00
aI00
aI00
aI00
aI00
aI00
aI00
aI00
aI00
aI00
aI00
aI00
aa(lp22
I00
aI00
aI00
aI00
aI00
aI00
aI01
aI00
aI00
aI00
aI01
aI00
aI00
aI01
aI01
aI00
aI00
aI00
aa(lp23
I00
aI00
aI00
aI00
aI00
aI00
aI00
aI00
aI00
aI00
aI00
aI00
aI00
aI00
aI00
aI00
aI00
aI00
aa(lp24
I00
aI00
aI00
aI00
aI00
aI00
aI01
aI00
aI01
aI00
aI01
aI00
aI01
aI00
aI01
aI00
aI00
aI00
aa(lp25
I00
aI00
aI00
aI00
aI00
aI00
aI00
aI00
aI00
aI00
aI01
aI00
aI00
aI01
aI00
aI00
aI00
aI00
aa(lp26
I00
aI01
aI01
aI00
aI01
aI00
aI01
aI00
aI01
aI00
aI00
aI00
aI00
aI00
aI00
aI00
aI00
aI00
aa(lp27
I00
aI00
aI00
aI00
aI00
aI00
aI00
aI00
aI00
aI00
aI01
aI00
aI00
aI00
aI00
aI00
aI00
aI00
aa(lp28
I00
aI00
aI00
aI00
aI00
aI00
aI00
aI00
aI00
aI00
aI01
aI00
aI00
aI00
aI01
aI01
aI00
aI00
aa(lp29
I00
aI00
aI00
aI00
aI00
aI00
aI00
aI00
aI00
aI00
aI00
aI00
aI01
aI00
aI00
aI00
aI01
aI00
aa(lp30
I00
aI00
aI00
aI01
aI01
aI00
aI00
aI00
aI00
aI00
aI00
aI00
aI00
aI00
aI00
aI00
aI01
aI00
aa(lp31
I00
aI00
aI01
aI00
aI00
aI00
aI00
aI01
aI00
aI00
aI00
aI00
aI00
aI00
aI00
aI00
aI00
aI00
aa(lp32
I00
aI00
aI00
aI00
aI00
aI00
aI00
aI00
aI00
aI00
aI00
aI00
aI01
aI00
aI00
aI00
aI01
aI00
aa(lp33
I00
aI00
aI00
aI00
aI00
aI00
aI00
aI00
aI00
aI00
aI01
aI00
aI00
aI00
aI00
aI00
aI00
aI00
aa(lp34
I00
aI00
aI00
aI00
aI00
aI00
aI00
aI00
aI00
aI00
aI00
aI00
aI00
aI00
aI00
aI00
aI00
aI00
aa(lp35
I00
aI00
aI00
aI00
aI00
aI00
aI00
aI00
aI00
aI00
aI00
aI00
aI00
aI00
aI00
aI00
aI00
aI00
aa(lp36
I00
aI00
aI00
aI00
aI00
aI00
aI00
aI00
aI00
aI00
aI00
aI00
aI00
aI00
aI00
aI00
aI00
aI00
aa(lp37
I00
aI00
aI00
aI00
aI00
aI00
aI00
aI00
aI00
aI00
aI00
aI00
aI00
aI00
aI00
aI00
aI00
aI00
aa(lp38
I00
aI00
aI00
aI00
aI00
aI00
aI00
aI01
aI00
aI00
aI00
aI00
aI00
aI00
aI00
aI00
aI00
aI00
aa(lp39
I00
aI01
aI00
aI00
aI00
aI01
aI00
aI00
aI00
aI00
aI00
aI00
aI00
aI00
aI00
aI00
aI00
aI00
aa(lp40
I00
aI00
aI00
aI00
aI00
aI00
aI00
aI00
aI00
aI00
aI01
aI00
aI00
aI00
aI00
aI01
aI00
aI00
aa(lp41
I00
aI01
aI00
aI00
aI00
aI00
aI00
aI00
aI00
aI00
aI00
aI00
aI00
aI01
aI01
aI00
aI00
aI00
aa(lp42
I00
aI01
aI00
aI00
aI00
aI01
aI00
aI00
aI00
aI00
aI00
aI00
aI00
aI00
aI00
aI00
aI00
aI00
aa(lp43
I00
aI00
aI01
aI01
aI00
aI00
aI00
aI01
aI00
aI00
aI00
aI00
aI00
aI00
aI00
aI00
aI00
aI00
aa(lp44
I00
aI00
aI00
aI00
aI00
aI00
aI00
aI01
aI00
aI00
aI00
aI00
aI00
aI00
aI00
aI00
aI00
aI00
aa(lp45
I00
aI00
aI00
aI00
aI00
aI00
aI00
aI00
aI00
aI01
aI00
aI01
aI00
aI01
aI00
aI01
aI01
aI00
aa(lp46
I00
aI00
aI00
aI00
aI01
aI00
aI00
aI01
aI00
aI00
aI00
aI00
aI00
aI00
aI00
aI00
aI00
aI00
aa(lp47
I00
aI00
aI00
aI01
aI00
aI01
aI00
aI01
aI00
aI01
aI00
aI01
aI00
aI00
aI00
aI00
aI00
aI00
aa(lp48
I00
aI00
aI00
aI00
aI00
aI00
aI00
aI00
aI00
aI00
aI00
aI00
aI00
aI00
aI00
aI00
aI00
aI00
aa(lp49
I00
aI00
aI00
aI01
aI01
aI00
aI00
aI01
aI00
aI00
aI00
aI01
aI00
aI00
aI00
aI00
aI00
aI00
aa(lp50
I00
aI00
aI00
aI00
aI00
aI00
aI00
aI00
aI00
aI00
aI00
aI00
aI00
aI00
aI00
aI00
aI00
aI00
aa(lp51
I00
aI00
aI00
aI00
aI00
aI00
aI00
aI00
aI00
aI00
aI00
aI00
aI00
aI00
aI00
aI00
aI00
aI00
aa(lp52
I00
aI00
aI00
aI00
aI00
aI00
aI00
aI00
aI00
aI00
aI00
aI00
aI00
aI00
aI00
aI00
aI00
aI00
aasS'height'
p53
I18
sbsS'agentPositions'
p54
(lp55
(I00
(I1
I2
tp56
tp57
a(I00
(I32
I15
tp58
tp59
a(I00
(I1
I1
tp60
tp61
a(I00
(I32
I16
tp62
tp63
asg53
I18
sg16
I34
sS'walls'
p64
(igame
Grid
p65
(dp66
g15
I30
sg16
I34
sg17
(lp67
(lp68
I01
aI01
aI01
aI01
aI01
aI01
aI01
aI01
aI01
aI01
aI01
aI01
aI01
aI01
aI01
aI01
aI01
aI01
aa(lp69
I01
aI00
aI00
aI00
aI00
aI00
aI00
aI00
aI00
aI00
aI00
aI00
aI00
aI00
aI00
aI00
aI00
aI01
aa(lp70
I01
aI01
aI01
aI01
aI01
aI01
aI01
aI01
aI01
aI01
aI01
aI01
aI01
aI01
aI01
aI01
aI00
aI01
aa(lp71
I01
aI00
aI00
aI00
aI00
aI00
aI00
aI00
aI00
aI00
aI00
aI00
aI00
aI00
aI00
aI01
aI00
aI01
aa(lp72
I01
aI01
aI00
aI01
aI01
aI01
aI01
aI01
aI01
aI01
aI01
aI01
aI01
aI01
aI01
aI01
aI00
aI01
aa(lp73
I01
aI00
aI00
aI00
aI00
aI00
aI00
aI00
aI00
aI01
aI00
aI01
aI00
aI01
aI00
aI01
aI00
aI01
aa(lp74
I01
aI01
aI01
aI01
aI01
aI01
aI01
aI01
aI00
aI01
aI00
aI00
aI00
aI00
aI00
aI01
aI00
aI01
aa(lp75
I01
aI00
aI00
aI01
aI00
aI01
aI00
aI01
aI00
aI01
aI01
aI01
aI01
aI01
aI00
aI01
aI00
aI01
aa(lp76
I01
aI01
aI00
aI01
aI00
aI00
aI00
aI00
aI00
aI01
aI00
aI00
aI01
aI00
aI00
aI01
aI00
aI01
aa(lp77
I01
aI00
aI00
aI00
aI00
aI01
aI00
aI01
aI00
aI00
aI00
aI00
aI01
aI00
aI00
aI00
aI00
aI01
aa(lp78
I01
aI00
aI01
aI01
aI01
aI01
aI00
aI00
aI00
aI01
aI00
aI00
aI00
aI00
aI00
aI01
aI00
aI01
aa(lp79
I01
aI00
aI00
aI00
aI00
aI01
aI00
aI00
aI00
aI00
aI00
aI00
aI01
aI00
aI00
aI01
aI00
aI01
aa(lp80
I01
aI01
aI00
aI01
aI01
aI01
aI01
aI00
aI01
aI00
aI01
aI01
aI01
aI01
aI01
aI01
aI01
aI01
aa(lp81
I01
aI00
aI00
aI00
aI00
aI00
aI00
aI00
aI00
aI00
aI00
aI01
aI00
aI00
aI00
aI00
aI00
aI01
aa(lp82
I01
aI00
aI01
aI01
aI01
aI01
aI01
aI01
aI01
aI01
aI00
aI00
aI00
aI01
aI01
aI00
aI01
aI01
aa(lp83
I01
aI00
aI00
aI00
aI00
aI00
aI00
aI01
aI00
aI00
aI00
aI01
aI00
aI00
aI00
aI00
aI00
aI01
aa(lp84
I01
aI00
aI00
aI01
aI00
aI01
aI00
aI00
aI00
aI01
aI00
aI01
aI00
aI01
aI00
aI00
aI00
aI01
aa(lp85
I01
aI00
aI00
aI00
aI01
aI00
aI01
aI00
aI01
aI00
aI00
aI00
aI01
aI00
aI01
aI00
aI00
aI01
aa(lp86
I01
aI00
aI00
aI00
aI00
aI00
aI01
aI00
aI00
aI00
aI01
aI00
aI00
aI00
aI00
aI00
aI00
aI01
aa(lp87
I01
aI01
aI00
aI01
aI01
aI00
aI00
aI00
aI01
aI01
aI01
aI01
aI01
aI01
aI01
aI01
aI00
aI01
aa(lp88
I01
aI00
aI00
aI00
aI00
aI00
aI01
aI00
aI00
aI00
aI00
aI00
aI00
aI00
aI00
aI00
aI00
aI01
aa(lp89
I01
aI01
aI01
aI01
aI01
aI01
aI01
aI01
aI00
aI01
aI00
aI01
aI01
aI01
aI01
aI00
aI01
aI01
aa(lp90
I01
aI00
aI01
aI00
aI00
aI01
aI00
aI00
aI00
aI00
aI00
aI00
aI01
aI00
aI00
aI00
aI00
aI01
aa(lp91
I01
aI00
aI01
aI00
aI00
aI00
aI00
aI00
aI01
aI00
aI00
aI00
aI01
aI01
aI01
aI01
aI00
aI01
aa(lp92
I01
aI00
aI00
aI00
aI00
aI01
aI00
aI00
aI00
aI00
aI01
aI00
aI01
aI00
aI00
aI00
aI00
aI01
aa(lp93
I01
aI00
aI01
aI00
aI00
aI01
aI00
aI00
aI01
aI00
aI00
aI00
aI00
aI00
aI01
aI00
aI01
aI01
aa(lp94
I01
aI00
aI01
aI00
aI01
aI01
aI01
aI01
aI01
aI00
aI01
aI00
aI01
aI00
aI01
aI00
aI00
aI01
aa(lp95
I01
aI00
aI01
aI00
aI00
aI00
aI00
aI00
aI01
aI00
aI01
aI01
aI01
aI01
aI01
aI01
aI01
aI01
aa(lp96
I01
aI00
aI01
aI00
aI01
aI00
aI01
aI00
aI01
aI00
aI00
aI00
aI00
aI00
aI00
aI00
aI00
aI01
aa(lp97
I01
aI00
aI01
aI01
aI01
aI01
aI01
aI01
aI01
aI01
aI01
aI01
aI01
aI01
aI01
aI00
aI01
aI01
aa(lp98
I01
aI00
aI01
aI00
aI00
aI00
aI00
aI00
aI00
aI00
aI00
aI00
aI00
aI00
aI00
aI00
aI00
aI01
aa(lp99
I01
aI00
aI01
aI01
aI01
aI01
aI01
aI01
aI01
aI01
aI01
aI01
aI01
aI01
aI01
aI01
aI01
aI01
aa(lp100
I01
aI00
aI00
aI00
aI00
aI00
aI00
aI00
aI00
aI00
aI00
aI00
aI00
aI00
aI00
aI00
aI00
aI01
aa(lp101
I01
aI01
aI01
aI01
aI01
aI01
aI01
aI01
aI01
aI01
aI01
aI01
aI01
aI01
aI01
aI01
aI01
aI01
aasg53
I18
sbsS'totalFood'
p102
I60
sS'layoutText'
p103
(lp104
S'%%%%%%%%%%%%%%%%%%%%%%%%%%%%%%%%%%'
p105
aS'%         ..%.%      %   %.% % %4%'
p106
aS'% %%%%%%%.%%%      % . %  .%   %2%'
p107
aS'% %.%.   .  % %  % % %.% %%% % % %'
p108
aS'% %.%%.%    % % %  % %.%  .% % % %'
p109
aS'% % %. %%%.%%.   % % %%%% %% % % %'
p110
aS'% % %% %    %% %%  % %    .%.%.% %'
p111
aS'% %.%..%..  % .   %% .  % %% % % %'
p112
aS'% % %%%%%o%   % %  % %   o. .% % %'
p113
aS'% % %. .o   % %  % %   %o%%%%% % %'
p114
aS'% % % %% %  . %%   . %  ..%..%.% %'
p115
aS'% %.%.%.    % %  %% %%    % %% % %'
p116
aS'% % % %% %%%% % %   .%%.%%% .% % %'
p117
aS'% % % %.  %.% %  % % %    %.%%.% %'
p118
aS'% % % %%% %.% % %  % %  .   .%.% %'
p119
aS'%1%   %.  % . %      %%%.%%%%%%% %'
p120
aS'%3% % %.%   %      %.%..         %'
p121
aS'%%%%%%%%%%%%%%%%%%%%%%%%%%%%%%%%%%'
p122
asbsS'blueTeamName'
p123
S'Blue'
p124
sS'actions'
p125
(lp126
(I1
S'South'
p127
tp128
a(I2
S'North'
p129
tp130
a(I3
g127
tp131
a(I0
S'Stop'
p132
tp133
a(I1
g127
tp134
a(I2
g132
tp135
a(I3
g127
tp136
a(I0
g129
tp137
a(I1
g127
tp138
a(I2
g129
tp139
a(I3
g127
tp140
a(I0
g132
tp141
a(I1
g127
tp142
a(I2
g129
tp143
a(I3
g127
tp144
a(I0
g129
tp145
a(I1
g127
tp146
a(I2
g132
tp147
a(I3
g127
tp148
a(I0
g129
tp149
a(I1
g127
tp150
a(I2
g129
tp151
a(I3
g127
tp152
a(I0
g132
tp153
a(I1
g127
tp154
a(I2
g127
tp155
a(I3
g127
tp156
a(I0
g129
tp157
a(I1
g127
tp158
a(I2
g129
tp159
a(I3
g127
tp160
a(I0
g129
tp161
a(I1
g127
tp162
a(I2
g129
tp163
a(I3
g127
tp164
a(I0
g129
tp165
a(I1
g127
tp166
a(I2
g129
tp167
a(I3
g127
tp168
a(I0
g129
tp169
a(I1
g127
tp170
a(I2
g129
tp171
a(I3
g127
tp172
a(I0
g129
tp173
a(I1
g127
tp174
a(I2
g129
tp175
a(I3
g127
tp176
a(I0
g129
tp177
a(I1
g127
tp178
a(I2
g129
tp179
a(I3
g127
tp180
a(I0
g129
tp181
a(I1
g127
tp182
a(I2
g129
tp183
a(I3
g127
tp184
a(I0
g129
tp185
a(I1
S'West'
p186
tp187
a(I2
g129
tp188
a(I3
g127
tp189
a(I0
g129
tp190
a(I1
g186
tp191
a(I2
g129
tp192
a(I3
g186
tp193
a(I0
g129
tp194
a(I1
g186
tp195
a(I2
g129
tp196
a(I3
g186
tp197
a(I0
g129
tp198
a(I1
g186
tp199
a(I2
g129
tp200
a(I3
g186
tp201
a(I0
S'East'
p202
tp203
a(I1
g186
tp204
a(I2
g129
tp205
a(I3
g186
tp206
a(I0
g202
tp207
a(I1
g186
tp208
a(I2
g202
tp209
a(I3
g186
tp210
a(I0
g202
tp211
a(I1
g186
tp212
a(I2
g202
tp213
a(I3
g186
tp214
a(I0
g202
tp215
a(I1
g186
tp216
a(I2
g202
tp217
a(I3
g186
tp218
a(I0
g202
tp219
a(I1
g129
tp220
a(I2
g202
tp221
a(I3
g186
tp222
a(I0
g202
tp223
a(I1
g129
tp224
a(I2
g202
tp225
a(I3
g129
tp226
a(I0
g202
tp227
a(I1
g129
tp228
a(I2
g202
tp229
a(I3
g129
tp230
a(I0
g202
tp231
a(I1
g186
tp232
a(I2
g202
tp233
a(I3
g129
tp234
a(I0
g127
tp235
a(I1
g129
tp236
a(I2
g202
tp237
a(I3
g186
tp238
a(I0
g127
tp239
a(I1
g129
tp240
a(I2
g127
tp241
a(I3
g129
tp242
a(I0
g127
tp243
a(I1
g186
tp244
a(I2
g127
tp245
a(I3
g129
tp246
a(I0
g202
tp247
a(I1
g129
tp248
a(I2
g127
tp249
a(I3
g202
tp250
a(I0
g127
tp251
a(I1
g129
tp252
a(I2
g202
tp253
a(I3
g202
tp254
a(I0
g127
tp255
a(I1
g186
tp256
a(I2
g127
tp257
a(I3
g129
tp258
a(I0
g202
tp259
a(I1
g186
tp260
a(I2
g127
tp261
a(I3
g186
tp262
a(I0
g127
tp263
a(I1
g127
tp264
a(I2
g186
tp265
a(I3
g127
tp266
a(I0
g127
tp267
a(I1
g186
tp268
a(I2
g127
tp269
a(I3
g202
tp270
a(I0
g202
tp271
a(I1
g186
tp272
a(I2
g202
tp273
a(I3
g186
tp274
a(I0
g202
tp275
a(I1
g186
tp276
a(I2
g202
tp277
a(I3
g186
tp278
a(I0
g129
tp279
a(I1
g186
tp280
a(I2
g127
tp281
a(I3
g129
tp282
a(I0
g202
tp283
a(I1
g127
tp284
a(I2
g202
tp285
a(I3
g202
tp286
a(I0
g202
tp287
a(I1
g186
tp288
a(I2
g202
tp289
a(I3
g127
tp290
a(I0
g127
tp291
a(I1
g127
tp292
a(I2
g129
tp293
a(I3
g186
tp294
a(I0
g127
tp295
a(I1
g127
tp296
a(I2
g202
tp297
a(I3
g202
tp298
a(I0
g202
tp299
a(I1
g127
tp300
a(I2
g202
tp301
a(I3
g129
tp302
a(I0
g127
tp303
a(I1
g127
tp304
a(I2
g202
tp305
a(I3
g127
tp306
a(I0
g127
tp307
a(I1
g127
tp308
a(I2
g202
tp309
a(I3
g202
tp310
a(I0
g186
tp311
a(I1
g186
tp312
a(I2
g127
tp313
a(I3
g129
tp314
a(I0
g127
tp315
a(I1
g186
tp316
a(I2
g202
tp317
a(I3
g186
tp318
a(I0
g127
tp319
a(I1
g129
tp320
a(I2
g127
tp321
a(I3
g127
tp322
a(I0
g127
tp323
a(I1
g186
tp324
a(I2
g127
tp325
a(I3
g186
tp326
a(I0
g127
tp327
a(I1
g186
tp328
a(I2
g202
tp329
a(I3
g186
tp330
a(I0
g127
tp331
a(I1
g129
tp332
a(I2
g202
tp333
a(I3
g129
tp334
a(I0
g186
tp335
a(I1
g129
tp336
a(I2
g129
tp337
a(I3
g129
tp338
a(I0
g186
tp339
a(I1
g127
tp340
a(I2
g129
tp341
a(I3
g186
tp342
a(I0
g129
tp343
a(I1
g129
tp344
a(I2
g129
tp345
a(I3
g186
tp346
a(I0
g186
tp347
a(I1
g127
tp348
a(I2
g202
tp349
a(I3
g129
tp350
a(I0
g186
tp351
a(I1
g127
tp352
a(I2
g202
tp353
a(I3
g129
tp354
a(I0
g202
tp355
a(I1
g127
tp356
a(I2
g202
tp357
a(I3
g202
tp358
a(I0
g202
tp359
a(I1
g127
tp360
a(I2
g127
tp361
a(I3
g202
tp362
a(I0
g127
tp363
a(I1
g127
tp364
a(I2
g202
tp365
a(I3
g202
tp366
a(I0
g202
tp367
a(I1
g127
tp368
a(I2
g202
tp369
a(I3
g129
tp370
a(I0
g202
tp371
a(I1
g127
tp372
a(I2
g202
tp373
a(I3
g186
tp374
a(I0
g129
tp375
a(I1
g127
tp376
a(I2
g202
tp377
a(I3
g127
tp378
a(I0
g202
tp379
a(I1
g127
tp380
a(I2
g202
tp381
a(I3
g186
tp382
a(I0
g202
tp383
a(I1
g127
tp384
a(I2
g129
tp385
a(I3
g202
tp386
a(I0
g202
tp387
a(I1
g127
tp388
a(I2
g129
tp389
a(I3
g127
tp390
a(I0
g202
tp391
a(I1
g127
tp392
a(I2
g127
tp393
a(I3
g127
tp394
a(I0
g202
tp395
a(I1
g127
tp396
a(I2
g127
tp397
a(I3
g127
tp398
a(I0
g127
tp399
a(I1
g127
tp400
a(I2
g186
tp401
a(I3
g202
tp402
a(I0
g129
tp403
a(I1
g127
tp404
a(I2
g186
tp405
a(I3
g127
tp406
a(I0
g129
tp407
a(I1
g127
tp408
a(I2
g186
tp409
a(I3
g127
tp410
a(I0
g129
tp411
a(I1
g186
tp412
a(I2
g186
tp413
a(I3
g127
tp414
a(I0
g129
tp415
a(I1
g186
tp416
a(I2
g127
tp417
a(I3
g202
tp418
a(I0
g186
tp419
a(I1
g186
tp420
a(I2
g127
tp421
a(I3
g202
tp422
a(I0
g129
tp423
a(I1
g186
tp424
a(I2
g202
tp425
a(I3
g127
tp426
a(I0
g129
tp427
a(I1
g186
tp428
a(I2
g186
tp429
a(I3
g202
tp430
a(I0
g202
tp431
a(I1
g186
tp432
asS'length'
p433
I1200
sS'agents'
p434
(lp435
(igame
Agent
p436
(dp437
S'index'
p438
I0
sba(igame
Agent
p439
(dp440
g438
I0
sba(igame
Agent
p441
(dp442
g438
I0
sba(igame
Agent
p443
(dp444
g438
I0
sbasS'redTeamName'
p445
S'Red'
p446
s.