(dp1
S'layout'
p2
(ilayout
Layout
p3
(dp4
S'capsules'
p5
(lp6
(I8
I8
tp7
a(I24
I8
tp8
a(I9
I9
tp9
a(I25
I9
tp10
asS'numGhosts'
p11
I4
sS'food'
p12
(igame
Grid
p13
(dp14
S'CELLS_PER_INT'
p15
I30
sS'width'
p16
I34
sS'data'
p17
(lp18
(lp19
I00
aI00
aI00
aI00
aI00
aI00
aI00
aI00
aI00
aI00
aI00
aI00
aI00
aI00
aI00
aI00
aI00
aI00
aa(lp20
I00
aI00
aI00
aI00
aI00
aI00
aI00
aI00
aI00
aI00
aI00
aI00
aI00
aI00
aI00
aI00
aI00
aI00
aa(lp21
I00
aI00
aI00
aI00
aI00
aI00
aI00
aI00
aI00
aI00
aI00
aI00
aI00
aI00
aI00
aI00
aI00
aI00
aa(lp22
I00
aI00
aI00
aI00
aI00
aI00
aI01
aI00
aI00
aI00
aI01
aI00
aI00
aI01
aI01
aI00
aI00
aI00
aa(lp23
I00
aI00
aI00
aI00
aI00
aI00
aI00
aI00
aI00
aI00
aI00
aI00
aI00
aI00
aI00
aI00
aI00
aI00
aa(lp24
I00
aI00
aI00
aI00
aI00
aI00
aI01
aI00
aI01
aI00
aI01
aI00
aI01
aI00
aI01
aI00
aI00
aI00
aa(lp25
I00
aI00
aI00
aI00
aI00
aI00
aI00
aI00
aI00
aI00
aI01
aI00
aI00
aI01
aI00
aI00
aI00
aI00
aa(lp26
I00
aI01
aI01
aI00
aI01
aI00
aI01
aI00
aI01
aI00
aI00
aI00
aI00
aI00
aI00
aI00
aI00
aI00
aa(lp27
I00
aI00
aI00
aI00
aI00
aI00
aI00
aI00
aI00
aI00
aI01
aI00
aI00
aI00
aI00
aI00
aI00
aI00
aa(lp28
I00
aI00
aI00
aI00
aI00
aI00
aI00
aI00
aI00
aI00
aI01
aI00
aI00
aI00
aI01
aI01
aI00
aI00
aa(lp29
I00
aI00
aI00
aI00
aI00
aI00
aI00
aI00
aI00
aI00
aI00
aI00
aI01
aI00
aI00
aI00
aI01
aI00
aa(lp30
I00
aI00
aI00
aI01
aI01
aI00
aI00
aI00
aI00
aI00
aI00
aI00
aI00
aI00
aI00
aI00
aI01
aI00
aa(lp31
I00
aI00
aI01
aI00
aI00
aI00
aI00
aI01
aI00
aI00
aI00
aI00
aI00
aI00
aI00
aI00
aI00
aI00
aa(lp32
I00
aI00
aI00
aI00
aI00
aI00
aI00
aI00
aI00
aI00
aI00
aI00
aI01
aI00
aI00
aI00
aI01
aI00
aa(lp33
I00
aI00
aI00
aI00
aI00
aI00
aI00
aI00
aI00
aI00
aI01
aI00
aI00
aI00
aI00
aI00
aI00
aI00
aa(lp34
I00
aI00
aI00
aI00
aI00
aI00
aI00
aI00
aI00
aI00
aI00
aI00
aI00
aI00
aI00
aI00
aI00
aI00
aa(lp35
I00
aI00
aI00
aI00
aI00
aI00
aI00
aI00
aI00
aI00
aI00
aI00
aI00
aI00
aI00
aI00
aI00
aI00
aa(lp36
I00
aI00
aI00
aI00
aI00
aI00
aI00
aI00
aI00
aI00
aI00
aI00
aI00
aI00
aI00
aI00
aI00
aI00
aa(lp37
I00
aI00
aI00
aI00
aI00
aI00
aI00
aI00
aI00
aI00
aI00
aI00
aI00
aI00
aI00
aI00
aI00
aI00
aa(lp38
I00
aI00
aI00
aI00
aI00
aI00
aI00
aI01
aI00
aI00
aI00
aI00
aI00
aI00
aI00
aI00
aI00
aI00
aa(lp39
I00
aI01
aI00
aI00
aI00
aI01
aI00
aI00
aI00
aI00
aI00
aI00
aI00
aI00
aI00
aI00
aI00
aI00
aa(lp40
I00
aI00
aI00
aI00
aI00
aI00
aI00
aI00
aI00
aI00
aI01
aI00
aI00
aI00
aI00
aI01
aI00
aI00
aa(lp41
I00
aI01
aI00
aI00
aI00
aI00
aI00
aI00
aI00
aI00
aI00
aI00
aI00
aI01
aI01
aI00
aI00
aI00
aa(lp42
I00
aI01
aI00
aI00
aI00
aI01
aI00
aI00
aI00
aI00
aI00
aI00
aI00
aI00
aI00
aI00
aI00
aI00
aa(lp43
I00
aI00
aI01
aI01
aI00
aI00
aI00
aI01
aI00
aI00
aI00
aI00
aI00
aI00
aI00
aI00
aI00
aI00
aa(lp44
I00
aI00
aI00
aI00
aI00
aI00
aI00
aI01
aI00
aI00
aI00
aI00
aI00
aI00
aI00
aI00
aI00
aI00
aa(lp45
I00
aI00
aI00
aI00
aI00
aI00
aI00
aI00
aI00
aI01
aI00
aI01
aI00
aI01
aI00
aI01
aI01
aI00
aa(lp46
I00
aI00
aI00
aI00
aI01
aI00
aI00
aI01
aI00
aI00
aI00
aI00
aI00
aI00
aI00
aI00
aI00
aI00
aa(lp47
I00
aI00
aI00
aI01
aI00
aI01
aI00
aI01
aI00
aI01
aI00
aI01
aI00
aI00
aI00
aI00
aI00
aI00
aa(lp48
I00
aI00
aI00
aI00
aI00
aI00
aI00
aI00
aI00
aI00
aI00
aI00
aI00
aI00
aI00
aI00
aI00
aI00
aa(lp49
I00
aI00
aI00
aI01
aI01
aI00
aI00
aI01
aI00
aI00
aI00
aI01
aI00
aI00
aI00
aI00
aI00
aI00
aa(lp50
I00
aI00
aI00
aI00
aI00
aI00
aI00
aI00
aI00
aI00
aI00
aI00
aI00
aI00
aI00
aI00
aI00
aI00
aa(lp51
I00
aI00
aI00
aI00
aI00
aI00
aI00
aI00
aI00
aI00
aI00
aI00
aI00
aI00
aI00
aI00
aI00
aI00
aa(lp52
I00
aI00
aI00
aI00
aI00
aI00
aI00
aI00
aI00
aI00
aI00
aI00
aI00
aI00
aI00
aI00
aI00
aI00
aasS'height'
p53
I18
sbsS'agentPositions'
p54
(lp55
(I00
(I1
I2
tp56
tp57
a(I00
(I32
I15
tp58
tp59
a(I00
(I1
I1
tp60
tp61
a(I00
(I32
I16
tp62
tp63
asg53
I18
sg16
I34
sS'walls'
p64
(igame
Grid
p65
(dp66
g15
I30
sg16
I34
sg17
(lp67
(lp68
I01
aI01
aI01
aI01
aI01
aI01
aI01
aI01
aI01
aI01
aI01
aI01
aI01
aI01
aI01
aI01
aI01
aI01
aa(lp69
I01
aI00
aI00
aI00
aI00
aI00
aI00
aI00
aI00
aI00
aI00
aI00
aI00
aI00
aI00
aI00
aI00
aI01
aa(lp70
I01
aI01
aI01
aI01
aI01
aI01
aI01
aI01
aI01
aI01
aI01
aI01
aI01
aI01
aI01
aI01
aI00
aI01
aa(lp71
I01
aI00
aI00
aI00
aI00
aI00
aI00
aI00
aI00
aI00
aI00
aI00
aI00
aI00
aI00
aI01
aI00
aI01
aa(lp72
I01
aI01
aI00
aI01
aI01
aI01
aI01
aI01
aI01
aI01
aI01
aI01
aI01
aI01
aI01
aI01
aI00
aI01
aa(lp73
I01
aI00
aI00
aI00
aI00
aI00
aI00
aI00
aI00
aI01
aI00
aI01
aI00
aI01
aI00
aI01
aI00
aI01
aa(lp74
I01
aI01
aI01
aI01
aI01
aI01
aI01
aI01
aI00
aI01
aI00
aI00
aI00
aI00
aI00
aI01
aI00
aI01
aa(lp75
I01
aI00
aI00
aI01
aI00
aI01
aI00
aI01
aI00
aI01
aI01
aI01
aI01
aI01
aI00
aI01
aI00
aI01
aa(lp76
I01
aI01
aI00
aI01
aI00
aI00
aI00
aI00
aI00
aI01
aI00
aI00
aI01
aI00
aI00
aI01
aI00
aI01
aa(lp77
I01
aI00
aI00
aI00
aI00
aI01
aI00
aI01
aI00
aI00
aI00
aI00
aI01
aI00
aI00
aI00
aI00
aI01
aa(lp78
I01
aI00
aI01
aI01
aI01
aI01
aI00
aI00
aI00
aI01
aI00
aI00
aI00
aI00
aI00
aI01
aI00
aI01
aa(lp79
I01
aI00
aI00
aI00
aI00
aI01
aI00
aI00
aI00
aI00
aI00
aI00
aI01
aI00
aI00
aI01
aI00
aI01
aa(lp80
I01
aI01
aI00
aI01
aI01
aI01
aI01
aI00
aI01
aI00
aI01
aI01
aI01
aI01
aI01
aI01
aI01
aI01
aa(lp81
I01
aI00
aI00
aI00
aI00
aI00
aI00
aI00
aI00
aI00
aI00
aI01
aI00
aI00
aI00
aI00
aI00
aI01
aa(lp82
I01
aI00
aI01
aI01
aI01
aI01
aI01
aI01
aI01
aI01
aI00
aI00
aI00
aI01
aI01
aI00
aI01
aI01
aa(lp83
I01
aI00
aI00
aI00
aI00
aI00
aI00
aI01
aI00
aI00
aI00
aI01
aI00
aI00
aI00
aI00
aI00
aI01
aa(lp84
I01
aI00
aI00
aI01
aI00
aI01
aI00
aI00
aI00
aI01
aI00
aI01
aI00
aI01
aI00
aI00
aI00
aI01
aa(lp85
I01
aI00
aI00
aI00
aI01
aI00
aI01
aI00
aI01
aI00
aI00
aI00
aI01
aI00
aI01
aI00
aI00
aI01
aa(lp86
I01
aI00
aI00
aI00
aI00
aI00
aI01
aI00
aI00
aI00
aI01
aI00
aI00
aI00
aI00
aI00
aI00
aI01
aa(lp87
I01
aI01
aI00
aI01
aI01
aI00
aI00
aI00
aI01
aI01
aI01
aI01
aI01
aI01
aI01
aI01
aI00
aI01
aa(lp88
I01
aI00
aI00
aI00
aI00
aI00
aI01
aI00
aI00
aI00
aI00
aI00
aI00
aI00
aI00
aI00
aI00
aI01
aa(lp89
I01
aI01
aI01
aI01
aI01
aI01
aI01
aI01
aI00
aI01
aI00
aI01
aI01
aI01
aI01
aI00
aI01
aI01
aa(lp90
I01
aI00
aI01
aI00
aI00
aI01
aI00
aI00
aI00
aI00
aI00
aI00
aI01
aI00
aI00
aI00
aI00
aI01
aa(lp91
I01
aI00
aI01
aI00
aI00
aI00
aI00
aI00
aI01
aI00
aI00
aI00
aI01
aI01
aI01
aI01
aI00
aI01
aa(lp92
I01
aI00
aI00
aI00
aI00
aI01
aI00
aI00
aI00
aI00
aI01
aI00
aI01
aI00
aI00
aI00
aI00
aI01
aa(lp93
I01
aI00
aI01
aI00
aI00
aI01
aI00
aI00
aI01
aI00
aI00
aI00
aI00
aI00
aI01
aI00
aI01
aI01
aa(lp94
I01
aI00
aI01
aI00
aI01
aI01
aI01
aI01
aI01
aI00
aI01
aI00
aI01
aI00
aI01
aI00
aI00
aI01
aa(lp95
I01
aI00
aI01
aI00
aI00
aI00
aI00
aI00
aI01
aI00
aI01
aI01
aI01
aI01
aI01
aI01
aI01
aI01
aa(lp96
I01
aI00
aI01
aI00
aI01
aI00
aI01
aI00
aI01
aI00
aI00
aI00
aI00
aI00
aI00
aI00
aI00
aI01
aa(lp97
I01
aI00
aI01
aI01
aI01
aI01
aI01
aI01
aI01
aI01
aI01
aI01
aI01
aI01
aI01
aI00
aI01
aI01
aa(lp98
I01
aI00
aI01
aI00
aI00
aI00
aI00
aI00
aI00
aI00
aI00
aI00
aI00
aI00
aI00
aI00
aI00
aI01
aa(lp99
I01
aI00
aI01
aI01
aI01
aI01
aI01
aI01
aI01
aI01
aI01
aI01
aI01
aI01
aI01
aI01
aI01
aI01
aa(lp100
I01
aI00
aI00
aI00
aI00
aI00
aI00
aI00
aI00
aI00
aI00
aI00
aI00
aI00
aI00
aI00
aI00
aI01
aa(lp101
I01
aI01
aI01
aI01
aI01
aI01
aI01
aI01
aI01
aI01
aI01
aI01
aI01
aI01
aI01
aI01
aI01
aI01
aasg53
I18
sbsS'totalFood'
p102
I60
sS'layoutText'
p103
(lp104
S'%%%%%%%%%%%%%%%%%%%%%%%%%%%%%%%%%%'
p105
aS'%         ..%.%      %   %.% % %4%'
p106
aS'% %%%%%%%.%%%      % . %  .%   %2%'
p107
aS'% %.%.   .  % %  % % %.% %%% % % %'
p108
aS'% %.%%.%    % % %  % %.%  .% % % %'
p109
aS'% % %. %%%.%%.   % % %%%% %% % % %'
p110
aS'% % %% %    %% %%  % %    .%.%.% %'
p111
aS'% %.%..%..  % .   %% .  % %% % % %'
p112
aS'% % %%%%%o%   % %  % %   o. .% % %'
p113
aS'% % %. .o   % %  % %   %o%%%%% % %'
p114
aS'% % % %% %  . %%   . %  ..%..%.% %'
p115
aS'% %.%.%.    % %  %% %%    % %% % %'
p116
aS'% % % %% %%%% % %   .%%.%%% .% % %'
p117
aS'% % % %.  %.% %  % % %    %.%%.% %'
p118
aS'% % % %%% %.% % %  % %  .   .%.% %'
p119
aS'%1%   %.  % . %      %%%.%%%%%%% %'
p120
aS'%3% % %.%   %      %.%..         %'
p121
aS'%%%%%%%%%%%%%%%%%%%%%%%%%%%%%%%%%%'
p122
asbsS'blueTeamName'
p123
S'Blue'
p124
sS'actions'
p125
(lp126
(I1
S'South'
p127
tp128
a(I2
S'North'
p129
tp130
a(I3
g127
tp131
a(I0
g129
tp132
a(I1
g127
tp133
a(I2
g129
tp134
a(I3
g127
tp135
a(I0
g129
tp136
a(I1
g127
tp137
a(I2
g129
tp138
a(I3
g127
tp139
a(I0
g129
tp140
a(I1
g127
tp141
a(I2
g129
tp142
a(I3
g127
tp143
a(I0
g129
tp144
a(I1
g127
tp145
a(I2
g129
tp146
a(I3
g127
tp147
a(I0
g129
tp148
a(I1
g127
tp149
a(I2
g129
tp150
a(I3
g127
tp151
a(I0
g129
tp152
a(I1
g127
tp153
a(I2
g129
tp154
a(I3
g127
tp155
a(I0
g129
tp156
a(I1
g127
tp157
a(I2
g129
tp158
a(I3
g127
tp159
a(I0
g129
tp160
a(I1
g127
tp161
a(I2
g129
tp162
a(I3
g127
tp163
a(I0
g129
tp164
a(I1
g127
tp165
a(I2
g129
tp166
a(I3
g127
tp167
a(I0
g129
tp168
a(I1
g127
tp169
a(I2
g129
tp170
a(I3
g127
tp171
a(I0
g129
tp172
a(I1
g127
tp173
a(I2
g129
tp174
a(I3
g127
tp175
a(I0
g129
tp176
a(I1
g127
tp177
a(I2
g129
tp178
a(I3
g127
tp179
a(I0
g129
tp180
a(I1
g127
tp181
a(I2
g129
tp182
a(I3
g127
tp183
a(I0
g129
tp184
a(I1
S'West'
p185
tp186
a(I2
g129
tp187
a(I3
g127
tp188
a(I0
S'East'
p189
tp190
a(I1
g185
tp191
a(I2
g189
tp192
a(I3
g185
tp193
a(I0
g189
tp194
a(I1
g185
tp195
a(I2
g189
tp196
a(I3
g185
tp197
a(I0
g189
tp198
a(I1
g185
tp199
a(I2
g189
tp200
a(I3
g185
tp201
a(I0
g189
tp202
a(I1
g185
tp203
a(I2
g189
tp204
a(I3
g185
tp205
a(I0
g189
tp206
a(I1
g185
tp207
a(I2
g189
tp208
a(I3
g185
tp209
a(I0
g189
tp210
a(I1
g185
tp211
a(I2
g189
tp212
a(I3
g185
tp213
a(I0
g189
tp214
a(I1
g185
tp215
a(I2
g189
tp216
a(I3
g185
tp217
a(I0
g189
tp218
a(I1
g129
tp219
a(I2
g189
tp220
a(I3
g185
tp221
a(I0
g127
tp222
a(I1
g129
tp223
a(I2
g127
tp224
a(I3
g129
tp225
a(I0
g127
tp226
a(I1
g185
tp227
a(I2
g127
tp228
a(I3
g129
tp229
a(I0
g127
tp230
a(I1
g129
tp231
a(I2
g189
tp232
a(I3
g185
tp233
a(I0
g189
tp234
a(I1
g129
tp235
a(I2
g127
tp236
a(I3
g129
tp237
a(I0
g127
tp238
a(I1
g129
tp239
a(I2
g127
tp240
a(I3
g129
tp241
a(I0
g127
tp242
a(I1
g185
tp243
a(I2
g127
tp244
a(I3
g129
tp245
a(I0
g189
tp246
a(I1
g129
tp247
a(I2
g127
tp248
a(I3
g185
tp249
a(I0
g127
tp250
a(I1
g129
tp251
a(I2
g185
tp252
a(I3
g129
tp253
a(I0
g127
tp254
a(I1
g185
tp255
a(I2
g127
tp256
a(I3
g129
tp257
a(I0
g189
tp258
a(I1
g185
tp259
a(I2
g127
tp260
a(I3
g185
tp261
a(I0
g189
tp262
a(I1
g127
tp263
a(I2
g129
tp264
a(I3
g185
tp265
a(I0
g129
tp266
a(I1
g185
tp267
a(I2
g129
tp268
a(I3
g127
tp269
a(I0
g189
tp270
a(I1
g185
tp271
a(I2
g127
tp272
a(I3
g185
tp273
a(I0
g189
tp274
a(I1
g185
tp275
a(I2
g127
tp276
a(I3
g185
tp277
a(I0
g189
tp278
a(I1
g185
tp279
a(I2
g189
tp280
a(I3
g129
tp281
a(I0
g185
tp282
a(I1
g127
tp283
a(I2
g189
tp284
a(I3
g129
tp285
a(I0
g127
tp286
a(I1
g185
tp287
a(I2
g129
tp288
a(I3
g185
tp289
a(I0
g127
tp290
a(I1
g127
tp291
a(I2
g189
tp292
a(I3
g129
tp293
a(I0
g189
tp294
a(I1
g127
tp295
a(I2
g189
tp296
a(I3
S'Stop'
p297
tp298
a(I0
g127
tp299
a(I1
g127
tp300
a(I2
g129
tp301
a(I3
g297
tp302
a(I0
g127
tp303
a(I1
g127
tp304
a(I2
g189
tp305
a(I3
g297
tp306
a(I0
g185
tp307
a(I1
g127
tp308
a(I2
g189
tp309
a(I3
g297
tp310
a(I0
g127
tp311
a(I1
g185
tp312
a(I2
g127
tp313
a(I3
g297
tp314
a(I0
g127
tp315
a(I1
g185
tp316
a(I2
g127
tp317
a(I3
g297
tp318
a(I0
g127
tp319
a(I1
g129
tp320
a(I2
g189
tp321
a(I3
g297
tp322
a(I0
g127
tp323
a(I1
g185
tp324
a(I2
g127
tp325
a(I3
g297
tp326
a(I0
g189
tp327
a(I1
g185
tp328
a(I2
g127
tp329
a(I3
g297
tp330
a(I0
g127
tp331
a(I1
g129
tp332
a(I2
g129
tp333
a(I3
g297
tp334
a(I0
g189
tp335
a(I1
g129
tp336
a(I2
g129
tp337
a(I3
g297
tp338
a(I0
g185
tp339
a(I1
g127
tp340
a(I2
g185
tp341
a(I3
g297
tp342
a(I0
g129
tp343
a(I1
g127
tp344
a(I2
g129
tp345
a(I3
g297
tp346
a(I0
g127
tp347
a(I1
g127
tp348
a(I2
g129
tp349
a(I3
g297
tp350
a(I0
g129
tp351
a(I1
g185
tp352
a(I2
g185
tp353
a(I3
g297
tp354
a(I0
g127
tp355
a(I1
g185
tp356
a(I2
g185
tp357
a(I3
g297
tp358
a(I0
g189
tp359
a(I1
g129
tp360
a(I2
g127
tp361
a(I3
g297
tp362
a(I0
g185
tp363
a(I1
g185
tp364
a(I2
g185
tp365
a(I3
g297
tp366
a(I0
g129
tp367
a(I1
g185
tp368
a(I2
g185
tp369
a(I3
g297
tp370
a(I0
g189
tp371
a(I1
g127
tp372
a(I2
g129
tp373
a(I3
g297
tp374
a(I0
g189
tp375
a(I1
g129
tp376
a(I2
g185
tp377
a(I3
g297
tp378
a(I0
g129
tp379
a(I1
g189
tp380
a(I2
g185
tp381
a(I3
g297
tp382
a(I0
g129
tp383
a(I1
g189
tp384
a(I2
g185
tp385
a(I3
g297
tp386
a(I0
g129
tp387
a(I1
g129
tp388
a(I2
g129
tp389
a(I3
g297
tp390
a(I0
g189
tp391
a(I1
g129
tp392
a(I2
g127
tp393
a(I3
g297
tp394
a(I0
g189
tp395
a(I1
g185
tp396
a(I2
g189
tp397
a(I3
g127
tp398
a(I0
g185
tp399
a(I1
g185
tp400
a(I2
g189
tp401
a(I3
g189
tp402
a(I0
g185
tp403
a(I1
g189
tp404
a(I2
g129
tp405
a(I3
g127
tp406
a(I0
g127
tp407
a(I1
g129
tp408
a(I2
g129
tp409
a(I3
g127
tp410
a(I0
g127
tp411
a(I1
g129
tp412
a(I2
g129
tp413
a(I3
g189
tp414
a(I0
g127
tp415
a(I1
g185
tp416
a(I2
g127
tp417
a(I3
g127
tp418
a(I0
g189
tp419
a(I1
g189
tp420
a(I2
g127
tp421
a(I3
g127
tp422
a(I0
g189
tp423
a(I1
g129
tp424
a(I2
g185
tp425
a(I3
g189
tp426
a(I0
g127
tp427
a(I1
g127
tp428
a(I2
g185
tp429
a(I3
g127
tp430
a(I0
g129
tp431
a(I1
g189
tp432
a(I2
g127
tp433
a(I3
g127
tp434
a(I0
g129
tp435
a(I1
g189
tp436
a(I2
g129
tp437
a(I3
g127
tp438
a(I0
g129
tp439
a(I1
g189
tp440
a(I2
g189
tp441
a(I3
g129
tp442
a(I0
g129
tp443
a(I1
g129
tp444
a(I2
g185
tp445
a(I3
g129
tp446
a(I0
g129
tp447
a(I1
g189
tp448
a(I2
g127
tp449
a(I3
g129
tp450
a(I0
g129
tp451
a(I1
g189
tp452
a(I2
g189
tp453
a(I3
g185
tp454
a(I0
g129
tp455
a(I1
g129
tp456
a(I2
g129
tp457
a(I3
g129
tp458
a(I0
g129
tp459
a(I1
g129
tp460
a(I2
g185
tp461
a(I3
g129
tp462
a(I0
g129
tp463
a(I1
g129
tp464
a(I2
g127
tp465
a(I3
g185
tp466
a(I0
g129
tp467
a(I1
g189
tp468
a(I2
g189
tp469
a(I3
g185
tp470
a(I0
g129
tp471
a(I1
g189
tp472
a(I2
g189
tp473
a(I3
g297
tp474
a(I0
g129
tp475
a(I1
g189
tp476
a(I2
g129
tp477
a(I3
g297
tp478
a(I0
g129
tp479
a(I1
g189
tp480
a(I2
g129
tp481
a(I3
g297
tp482
a(I0
g129
tp483
a(I1
g185
tp484
a(I2
g129
tp485
a(I3
g297
tp486
a(I0
g129
tp487
a(I1
g185
tp488
a(I2
g185
tp489
a(I3
g297
tp490
a(I0
g129
tp491
a(I1
g185
tp492
a(I2
g185
tp493
a(I3
g297
tp494
a(I0
g189
tp495
a(I1
g129
tp496
a(I2
g129
tp497
a(I3
g297
tp498
a(I0
g189
tp499
a(I1
g129
tp500
a(I2
g185
tp501
a(I3
g297
tp502
a(I0
g189
tp503
a(I1
g185
tp504
a(I2
g185
tp505
a(I3
g297
tp506
a(I0
g189
tp507
a(I1
g129
tp508
a(I2
g127
tp509
a(I3
g297
tp510
a(I0
g189
tp511
a(I1
g129
tp512
a(I2
g127
tp513
a(I3
g297
tp514
a(I0
g189
tp515
a(I1
g129
tp516
a(I2
g127
tp517
a(I3
g297
tp518
a(I0
g189
tp519
a(I1
g129
tp520
a(I2
g129
tp521
a(I3
g297
tp522
a(I0
g189
tp523
a(I1
g127
tp524
a(I2
g129
tp525
a(I3
g297
tp526
a(I0
g127
tp527
a(I1
g189
tp528
a(I2
g129
tp529
a(I3
g297
tp530
a(I0
g127
tp531
a(I1
g189
tp532
a(I2
g127
tp533
a(I3
g297
tp534
a(I0
g127
tp535
a(I1
g189
tp536
a(I2
g127
tp537
a(I3
g297
tp538
a(I0
g189
tp539
a(I1
g189
tp540
a(I2
g185
tp541
a(I3
g297
tp542
a(I0
g127
tp543
a(I1
g185
tp544
a(I2
g189
tp545
a(I3
g297
tp546
a(I0
g127
tp547
a(I1
g185
tp548
a(I2
g129
tp549
a(I3
g297
tp550
a(I0
g127
tp551
a(I1
g127
tp552
a(I2
g127
tp553
a(I3
g297
tp554
a(I0
g189
tp555
a(I1
g127
tp556
a(I2
g185
tp557
a(I3
g297
tp558
a(I0
g127
tp559
a(I1
g127
tp560
a(I2
g189
tp561
a(I3
g297
tp562
a(I0
g189
tp563
a(I1
g185
tp564
a(I2
g129
tp565
a(I3
g297
tp566
a(I0
g189
tp567
a(I1
g189
tp568
a(I2
g129
tp569
a(I3
g297
tp570
a(I0
g129
tp571
a(I1
g185
tp572
a(I2
g189
tp573
a(I3
g297
tp574
a(I0
g189
tp575
a(I1
g127
tp576
a(I2
g189
tp577
a(I3
g297
tp578
a(I0
g129
tp579
a(I1
g127
tp580
a(I2
g185
tp581
a(I3
g297
tp582
a(I0
g127
tp583
a(I1
g127
tp584
a(I2
g185
tp585
a(I3
g297
tp586
a(I0
g189
tp587
a(I1
g127
tp588
a(I2
g127
tp589
a(I3
g297
tp590
a(I0
g189
tp591
a(I1
g127
tp592
a(I2
g127
tp593
a(I3
g297
tp594
a(I0
g189
tp595
a(I1
g127
tp596
a(I2
g185
tp597
a(I3
g189
tp598
a(I0
g129
tp599
a(I1
g127
tp600
a(I2
g189
tp601
a(I3
g129
tp602
a(I0
g189
tp603
a(I1
g127
tp604
a(I2
g129
tp605
a(I3
g129
tp606
a(I0
g129
tp607
a(I1
g127
tp608
a(I2
g127
tp609
a(I3
g185
tp610
a(I0
g129
tp611
a(I1
g127
tp612
a(I2
g185
tp613
a(I3
g129
tp614
a(I0
g129
tp615
a(I1
g127
tp616
a(I2
g189
tp617
a(I3
g129
tp618
a(I0
g129
tp619
a(I1
g127
tp620
a(I2
g129
tp621
a(I3
g189
tp622
a(I0
g129
tp623
a(I1
g127
tp624
a(I2
g127
tp625
a(I3
g129
tp626
a(I0
g189
tp627
a(I1
g127
tp628
a(I2
g185
tp629
a(I3
g129
tp630
a(I0
g189
tp631
a(I1
g127
tp632
a(I2
g189
tp633
a(I3
g129
tp634
a(I0
g127
tp635
a(I1
g185
tp636
a(I2
g185
tp637
a(I3
g129
tp638
a(I0
g189
tp639
a(I1
g185
tp640
a(I2
g189
tp641
a(I3
g129
tp642
a(I0
g189
tp643
a(I1
g185
tp644
a(I2
g185
tp645
a(I3
g189
tp646
a(I0
g127
tp647
a(I1
g185
tp648
a(I2
g189
tp649
a(I3
g189
tp650
a(I0
g127
tp651
a(I1
g185
tp652
a(I2
g127
tp653
a(I3
g127
tp654
a(I0
g129
tp655
a(I1
g185
tp656
a(I2
g129
tp657
a(I3
g189
tp658
a(I0
g129
tp659
a(I1
g185
tp660
a(I2
g185
tp661
a(I3
g189
tp662
a(I0
g129
tp663
a(I1
g185
tp664
a(I2
g189
tp665
a(I3
g185
tp666
a(I0
g129
tp667
a(I1
g129
tp668
a(I2
g185
tp669
a(I3
g185
tp670
a(I0
g129
tp671
a(I1
g129
tp672
a(I2
g189
tp673
a(I3
g129
tp674
a(I0
g129
tp675
a(I1
g185
tp676
a(I2
g185
tp677
a(I3
g185
tp678
a(I0
g129
tp679
a(I1
g129
tp680
a(I2
g189
tp681
a(I3
g185
tp682
a(I0
g129
tp683
a(I1
g129
tp684
a(I2
g185
tp685
a(I3
g127
tp686
a(I0
g129
tp687
a(I1
g129
tp688
a(I2
g189
tp689
a(I3
g127
tp690
a(I0
g129
tp691
a(I1
g185
tp692
a(I2
g185
tp693
a(I3
g127
tp694
a(I0
g129
tp695
a(I1
g129
tp696
a(I2
g189
tp697
a(I3
g127
tp698
a(I0
g129
tp699
a(I1
g129
tp700
a(I2
g127
tp701
a(I3
g127
tp702
a(I0
g129
tp703
a(I1
g185
tp704
a(I2
g129
tp705
a(I3
g185
tp706
a(I0
g129
tp707
a(I1
g185
tp708
a(I2
g185
tp709
a(I3
g127
tp710
a(I0
g129
tp711
a(I1
g127
tp712
a(I2
g189
tp713
a(I3
g127
tp714
a(I0
g129
tp715
a(I1
g185
tp716
a(I2
g185
tp717
a(I3
g189
tp718
a(I0
g189
tp719
a(I1
g185
tp720
a(I2
g189
tp721
a(I3
g297
tp722
a(I0
g189
tp723
a(I1
g185
tp724
a(I2
g185
tp725
a(I3
g297
tp726
a(I0
g189
tp727
a(I1
g185
tp728
a(I2
g189
tp729
a(I3
g297
tp730
a(I0
g189
tp731
a(I1
g129
tp732
a(I2
g185
tp733
a(I3
g297
tp734
a(I0
g189
tp735
a(I1
g185
tp736
a(I2
g189
tp737
a(I3
g297
tp738
a(I0
g189
tp739
a(I1
g129
tp740
a(I2
g129
tp741
a(I3
g297
tp742
a(I0
g189
tp743
a(I1
g129
tp744
a(I2
g127
tp745
a(I3
g297
tp746
a(I0
g189
tp747
a(I1
g185
tp748
a(I2
g185
tp749
a(I3
g297
tp750
a(I0
g127
tp751
a(I1
g185
tp752
a(I2
g189
tp753
a(I3
g297
tp754
a(I0
g127
tp755
a(I1
g127
tp756
a(I2
g185
tp757
a(I3
g297
tp758
a(I0
g189
tp759
a(I1
g185
tp760
a(I2
g189
tp761
a(I3
g297
tp762
a(I0
g127
tp763
a(I1
g185
tp764
a(I2
g129
tp765
a(I3
g185
tp766
a(I0
g127
tp767
a(I1
g127
tp768
a(I2
g129
tp769
a(I3
g129
tp770
a(I0
g127
tp771
a(I1
g185
tp772
a(I2
g189
tp773
a(I3
g297
tp774
a(I0
g127
tp775
a(I1
g185
tp776
a(I2
g189
tp777
a(I3
g297
tp778
a(I0
g189
tp779
a(I1
g185
tp780
a(I2
g185
tp781
a(I3
g297
tp782
a(I0
g127
tp783
a(I1
g185
tp784
a(I2
g185
tp785
a(I3
g297
tp786
a(I0
g189
tp787
a(I1
g185
tp788
a(I2
g185
tp789
a(I3
g297
tp790
a(I0
g189
tp791
a(I1
g185
tp792
a(I2
g189
tp793
a(I3
g297
tp794
a(I0
g185
tp795
a(I1
g127
tp796
a(I2
g189
tp797
a(I3
g297
tp798
a(I0
g189
tp799
a(I1
g127
tp800
a(I2
g185
tp801
a(I3
g297
tp802
a(I0
g127
tp803
a(I1
g129
tp804
a(I2
g127
tp805
a(I3
g297
tp806
a(I0
g129
tp807
a(I1
g129
tp808
a(I2
g127
tp809
a(I3
g297
tp810
a(I0
g185
tp811
a(I1
g189
tp812
a(I2
g127
tp813
a(I3
g297
tp814
a(I0
g189
tp815
a(I1
g185
tp816
a(I2
g127
tp817
a(I3
g297
tp818
a(I0
g127
tp819
a(I1
g189
tp820
a(I2
g185
tp821
a(I3
g297
tp822
a(I0
g129
tp823
a(I1
g185
tp824
a(I2
g189
tp825
a(I3
g297
tp826
a(I0
g185
tp827
a(I1
g189
tp828
a(I2
g185
tp829
a(I3
g297
tp830
a(I0
g189
tp831
a(I1
g185
tp832
a(I2
g189
tp833
a(I3
g297
tp834
a(I0
g127
tp835
a(I1
g189
tp836
a(I2
g185
tp837
a(I3
g297
tp838
a(I0
g129
tp839
a(I1
g185
tp840
a(I2
g189
tp841
a(I3
g297
tp842
a(I0
g185
tp843
a(I1
g189
tp844
a(I2
g185
tp845
a(I3
g297
tp846
a(I0
g189
tp847
a(I1
g185
tp848
a(I2
g189
tp849
a(I3
g297
tp850
a(I0
g127
tp851
a(I1
g189
tp852
a(I2
g185
tp853
a(I3
g297
tp854
a(I0
g129
tp855
a(I1
g185
tp856
a(I2
g189
tp857
a(I3
g297
tp858
a(I0
g185
tp859
a(I1
g189
tp860
a(I2
g185
tp861
a(I3
g297
tp862
a(I0
g189
tp863
a(I1
g185
tp864
a(I2
g189
tp865
a(I3
g297
tp866
a(I0
g127
tp867
a(I1
g189
tp868
a(I2
g185
tp869
a(I3
g297
tp870
a(I0
g129
tp871
a(I1
g185
tp872
a(I2
g189
tp873
a(I3
g297
tp874
a(I0
g127
tp875
a(I1
g189
tp876
a(I2
g185
tp877
a(I3
g297
tp878
a(I0
g129
tp879
a(I1
g185
tp880
a(I2
g189
tp881
a(I3
g297
tp882
a(I0
g185
tp883
a(I1
g189
tp884
a(I2
g185
tp885
a(I3
g297
tp886
a(I0
g189
tp887
a(I1
g185
tp888
a(I2
g189
tp889
a(I3
g297
tp890
a(I0
g127
tp891
a(I1
g189
tp892
a(I2
g185
tp893
a(I3
g297
tp894
a(I0
g129
tp895
a(I1
g185
tp896
a(I2
g189
tp897
a(I3
g297
tp898
a(I0
g185
tp899
a(I1
g189
tp900
a(I2
g185
tp901
a(I3
g297
tp902
a(I0
g189
tp903
a(I1
g185
tp904
a(I2
g189
tp905
a(I3
g297
tp906
a(I0
g127
tp907
a(I1
g189
tp908
a(I2
g185
tp909
a(I3
g297
tp910
a(I0
g129
tp911
a(I1
g185
tp912
a(I2
g189
tp913
a(I3
g297
tp914
a(I0
g127
tp915
a(I1
g189
tp916
a(I2
g185
tp917
a(I3
g297
tp918
a(I0
g129
tp919
a(I1
g185
tp920
a(I2
g189
tp921
a(I3
g297
tp922
a(I0
g185
tp923
a(I1
g189
tp924
a(I2
g185
tp925
a(I3
g297
tp926
a(I0
g189
tp927
a(I1
g185
tp928
a(I2
g189
tp929
a(I3
g297
tp930
a(I0
g127
tp931
a(I1
g189
tp932
a(I2
g185
tp933
a(I3
g297
tp934
a(I0
g129
tp935
a(I1
g185
tp936
a(I2
g189
tp937
a(I3
g297
tp938
a(I0
g185
tp939
a(I1
g189
tp940
a(I2
g129
tp941
a(I3
g297
tp942
a(I0
g189
tp943
a(I1
g185
tp944
a(I2
g129
tp945
a(I3
g297
tp946
a(I0
g127
tp947
a(I1
g189
tp948
a(I2
g129
tp949
a(I3
g297
tp950
a(I0
g129
tp951
a(I1
g185
tp952
a(I2
g127
tp953
a(I3
g297
tp954
a(I0
g185
tp955
a(I1
g189
tp956
a(I2
g129
tp957
a(I3
g297
tp958
a(I0
g189
tp959
a(I1
g185
tp960
a(I2
g127
tp961
a(I3
g297
tp962
a(I0
g127
tp963
a(I1
g189
tp964
a(I2
g129
tp965
a(I3
g297
tp966
a(I0
g129
tp967
a(I1
g185
tp968
a(I2
g127
tp969
a(I3
g297
tp970
a(I0
g185
tp971
a(I1
g189
tp972
a(I2
g129
tp973
a(I3
g297
tp974
a(I0
g189
tp975
a(I1
g185
tp976
a(I2
g127
tp977
a(I3
g297
tp978
a(I0
g127
tp979
a(I1
g189
tp980
a(I2
g129
tp981
a(I3
g297
tp982
a(I0
g129
tp983
a(I1
g185
tp984
a(I2
g127
tp985
a(I3
g297
tp986
a(I0
g185
tp987
a(I1
g189
tp988
a(I2
g129
tp989
a(I3
g297
tp990
a(I0
g189
tp991
a(I1
g185
tp992
a(I2
g129
tp993
a(I3
g297
tp994
a(I0
g127
tp995
a(I1
g189
tp996
a(I2
g127
tp997
a(I3
g297
tp998
a(I0
g129
tp999
a(I1
g185
tp1000
a(I2
g127
tp1001
a(I3
g297
tp1002
a(I0
g127
tp1003
a(I1
g189
tp1004
a(I2
g129
tp1005
a(I3
g297
tp1006
a(I0
g129
tp1007
a(I1
g185
tp1008
a(I2
g127
tp1009
a(I3
g297
tp1010
a(I0
g185
tp1011
a(I1
g189
tp1012
a(I2
g129
tp1013
a(I3
g297
tp1014
a(I0
g189
tp1015
a(I1
g185
tp1016
a(I2
g127
tp1017
a(I3
g297
tp1018
a(I0
g127
tp1019
a(I1
g189
tp1020
a(I2
g129
tp1021
a(I3
g297
tp1022
a(I0
g129
tp1023
a(I1
g185
tp1024
a(I2
g127
tp1025
a(I3
g297
tp1026
a(I0
g185
tp1027
a(I1
g189
tp1028
a(I2
g129
tp1029
a(I3
g297
tp1030
a(I0
g189
tp1031
a(I1
g185
tp1032
a(I2
g127
tp1033
a(I3
g297
tp1034
a(I0
g127
tp1035
a(I1
g127
tp1036
a(I2
g127
tp1037
a(I3
g297
tp1038
a(I0
g129
tp1039
a(I1
g127
tp1040
a(I2
g127
tp1041
a(I3
g297
tp1042
a(I0
g185
tp1043
a(I1
g127
tp1044
a(I2
g129
tp1045
a(I3
g297
tp1046
a(I0
g189
tp1047
a(I1
g129
tp1048
a(I2
g129
tp1049
a(I3
g297
tp1050
a(I0
g127
tp1051
a(I1
g129
tp1052
a(I2
g127
tp1053
a(I3
g297
tp1054
a(I0
g129
tp1055
a(I1
g127
tp1056
a(I2
g127
tp1057
a(I3
g297
tp1058
a(I0
g185
tp1059
a(I1
g129
tp1060
a(I2
g129
tp1061
a(I3
g297
tp1062
a(I0
g189
tp1063
a(I1
g127
tp1064
a(I2
g129
tp1065
a(I3
g297
tp1066
a(I0
g127
tp1067
a(I1
g129
tp1068
a(I2
g127
tp1069
a(I3
g297
tp1070
a(I0
g129
tp1071
a(I1
g127
tp1072
a(I2
g127
tp1073
a(I3
g297
tp1074
a(I0
g127
tp1075
a(I1
g129
tp1076
a(I2
g129
tp1077
a(I3
g297
tp1078
a(I0
g129
tp1079
a(I1
g127
tp1080
a(I2
g129
tp1081
a(I3
g297
tp1082
a(I0
g185
tp1083
a(I1
g129
tp1084
a(I2
g127
tp1085
a(I3
g297
tp1086
a(I0
g189
tp1087
a(I1
g127
tp1088
a(I2
g127
tp1089
a(I3
g297
tp1090
a(I0
g127
tp1091
a(I1
g127
tp1092
a(I2
g129
tp1093
a(I3
g297
tp1094
a(I0
g129
tp1095
a(I1
g127
tp1096
a(I2
g129
tp1097
a(I3
g297
tp1098
a(I0
g185
tp1099
a(I1
g127
tp1100
a(I2
g127
tp1101
a(I3
g297
tp1102
a(I0
g189
tp1103
a(I1
g127
tp1104
a(I2
g127
tp1105
a(I3
g297
tp1106
a(I0
g127
tp1107
a(I1
g185
tp1108
a(I2
g129
tp1109
a(I3
g297
tp1110
a(I0
g129
tp1111
a(I1
g185
tp1112
a(I2
g129
tp1113
a(I3
g297
tp1114
a(I0
g185
tp1115
a(I1
g129
tp1116
a(I2
g129
tp1117
a(I3
g297
tp1118
a(I0
g189
tp1119
a(I1
g129
tp1120
a(I2
g127
tp1121
a(I3
g297
tp1122
a(I0
g127
tp1123
a(I1
g129
tp1124
a(I2
g127
tp1125
a(I3
g297
tp1126
a(I0
g129
tp1127
a(I1
g129
tp1128
a(I2
g129
tp1129
a(I3
g297
tp1130
a(I0
g185
tp1131
a(I1
g129
tp1132
a(I2
g185
tp1133
a(I3
g297
tp1134
a(I0
g189
tp1135
a(I1
g129
tp1136
a(I2
g189
tp1137
a(I3
g297
tp1138
a(I0
g127
tp1139
a(I1
g129
tp1140
a(I2
g127
tp1141
a(I3
g297
tp1142
a(I0
g129
tp1143
a(I1
g129
tp1144
a(I2
g129
tp1145
a(I3
g297
tp1146
a(I0
g185
tp1147
a(I1
g129
tp1148
a(I2
g129
tp1149
a(I3
g297
tp1150
a(I0
g189
tp1151
a(I1
g129
tp1152
a(I2
g129
tp1153
a(I3
g297
tp1154
a(I0
g127
tp1155
a(I1
g129
tp1156
a(I2
g189
tp1157
a(I3
g297
tp1158
a(I0
g129
tp1159
a(I1
g129
tp1160
a(I2
g189
tp1161
a(I3
g297
tp1162
a(I0
g127
tp1163
a(I1
g127
tp1164
a(I2
g127
tp1165
a(I3
g297
tp1166
a(I0
g129
tp1167
a(I1
g127
tp1168
a(I2
g129
tp1169
a(I3
g297
tp1170
a(I0
g185
tp1171
a(I1
g127
tp1172
a(I2
g185
tp1173
a(I3
g297
tp1174
a(I0
g189
tp1175
a(I1
g127
tp1176
a(I2
g185
tp1177
a(I3
g297
tp1178
a(I0
g127
tp1179
a(I1
g127
tp1180
a(I2
g127
tp1181
a(I3
g297
tp1182
a(I0
g129
tp1183
a(I1
g127
tp1184
a(I2
g127
tp1185
a(I3
g297
tp1186
a(I0
g185
tp1187
a(I1
g127
tp1188
a(I2
g185
tp1189
a(I3
g297
tp1190
a(I0
g189
tp1191
a(I1
g127
tp1192
a(I2
g189
tp1193
a(I3
g297
tp1194
a(I0
g185
tp1195
a(I1
g127
tp1196
a(I2
g127
tp1197
a(I3
g297
tp1198
a(I0
g189
tp1199
a(I1
g127
tp1200
a(I2
g129
tp1201
a(I3
g297
tp1202
a(I0
g127
tp1203
a(I1
g127
tp1204
a(I2
g185
tp1205
a(I3
g297
tp1206
a(I0
g129
tp1207
a(I1
g127
tp1208
a(I2
g189
tp1209
a(I3
g297
tp1210
a(I0
g185
tp1211
a(I1
g189
tp1212
a(I2
g129
tp1213
a(I3
g297
tp1214
a(I0
g189
tp1215
a(I1
g189
tp1216
a(I2
g127
tp1217
a(I3
g297
tp1218
a(I0
g127
tp1219
a(I1
g129
tp1220
a(I2
g185
tp1221
a(I3
g297
tp1222
a(I0
g129
tp1223
a(I1
g129
tp1224
a(I2
g189
tp1225
a(I3
g297
tp1226
a(I0
g127
tp1227
a(I1
g129
tp1228
a(I2
g185
tp1229
a(I3
g297
tp1230
a(I0
g129
tp1231
a(I1
g129
tp1232
a(I2
g189
tp1233
a(I3
g297
tp1234
a(I0
g185
tp1235
a(I1
g129
tp1236
a(I2
g185
tp1237
a(I3
g297
tp1238
a(I0
g189
tp1239
a(I1
g129
tp1240
a(I2
g189
tp1241
a(I3
g297
tp1242
a(I0
g127
tp1243
a(I1
g189
tp1244
a(I2
g129
tp1245
a(I3
g297
tp1246
a(I0
g129
tp1247
a(I1
g189
tp1248
a(I2
g127
tp1249
a(I3
g297
tp1250
a(I0
g185
tp1251
a(I1
g189
tp1252
a(I2
g129
tp1253
a(I3
g297
tp1254
a(I0
g189
tp1255
a(I1
g189
tp1256
a(I2
g129
tp1257
a(I3
g297
tp1258
a(I0
g127
tp1259
a(I1
g129
tp1260
a(I2
g185
tp1261
a(I3
g297
tp1262
a(I0
g129
tp1263
a(I1
g129
tp1264
a(I2
g189
tp1265
a(I3
g297
tp1266
a(I0
g185
tp1267
a(I1
g185
tp1268
a(I2
g127
tp1269
a(I3
g297
tp1270
a(I0
g189
tp1271
a(I1
g129
tp1272
a(I2
g127
tp1273
a(I3
g297
tp1274
a(I0
g127
tp1275
a(I1
g189
tp1276
a(I2
g185
tp1277
a(I3
g297
tp1278
a(I0
g129
tp1279
a(I1
g189
tp1280
a(I2
g189
tp1281
a(I3
g297
tp1282
a(I0
g185
tp1283
a(I1
g129
tp1284
a(I2
g127
tp1285
a(I3
g297
tp1286
a(I0
g189
tp1287
a(I1
g129
tp1288
a(I2
g129
tp1289
a(I3
g297
tp1290
a(I0
g127
tp1291
a(I1
g127
tp1292
a(I2
g185
tp1293
a(I3
g297
tp1294
a(I0
g129
tp1295
a(I1
g129
tp1296
a(I2
g189
tp1297
a(I3
g297
tp1298
a(I0
g185
tp1299
a(I1
g185
tp1300
a(I2
g127
tp1301
a(I3
g297
tp1302
a(I0
g189
tp1303
a(I1
g129
tp1304
a(I2
g129
tp1305
a(I3
g297
tp1306
a(I0
g127
tp1307
a(I1
g129
tp1308
a(I2
g129
tp1309
a(I3
g297
tp1310
a(I0
g129
tp1311
a(I1
g129
tp1312
a(I2
g129
tp1313
a(I3
g297
tp1314
a(I0
g127
tp1315
a(I1
g189
tp1316
a(I2
g127
tp1317
a(I3
g297
tp1318
a(I0
g129
tp1319
a(I1
g189
tp1320
a(I2
g127
tp1321
a(I3
g297
tp1322
a(I0
g185
tp1323
a(I1
g185
tp1324
a(I2
g185
tp1325
a(I3
g297
tp1326
a(I0
g189
tp1327
a(I1
g185
tp1328
a(I2
g189
tp1329
a(I3
g297
tp1330
a(I0
g127
tp1331
asS'length'
p1332
I1200
sS'agents'
p1333
(lp1334
(igame
Agent
p1335
(dp1336
S'index'
p1337
I0
sba(igame
Agent
p1338
(dp1339
g1337
I0
sba(igame
Agent
p1340
(dp1341
g1337
I0
sba(igame
Agent
p1342
(dp1343
g1337
I0
sbasS'redTeamName'
p1344
S'Red'
p1345
s.